# SymbolsHelper-Confirmed: 4:14.12.0 amd64
libkasten3okteta1gui.so.1 libkasten3okteta1gui1 #MINVER#
 ABI_1_0@ABI_1_0 4:14.12.0
 (optional=templinst)_ZN12KConfigGroup10writeEntryIbEEvPKcRKT_6QFlagsIN11KConfigBase15WriteConfigFlagEE@ABI_1_0 4:14.12.0
 (optional=templinst)_ZN12KConfigGroup10writeEntryIiEEvPKcRKT_6QFlagsIN11KConfigBase15WriteConfigFlagEE@ABI_1_0 4:14.12.0
 _ZN6Kasten13ByteArrayView10insertDataEPK9QMimeData@ABI_1_0 4:14.12.0
 _ZN6Kasten13ByteArrayView10setMarkingERKN3KDE11NumberRangeIiiEEb@ABI_1_0 4:14.12.0
 _ZN6Kasten13ByteArrayView11qt_metacallEN11QMetaObject4CallEiPPv@ABI_1_0 4:14.12.0
 _ZN6Kasten13ByteArrayView11qt_metacastEPKc@ABI_1_0 4:14.12.0
 _ZN6Kasten13ByteArrayView11setReadOnlyEb@ABI_1_0 4:14.12.0
 _ZN6Kasten13ByteArrayView12setSelectionEii@ABI_1_0 4:14.12.0
 _ZN6Kasten13ByteArrayView12setViewModusEi@ABI_1_0 4:14.12.0
 _ZN6Kasten13ByteArrayView12setZoomLevelEd@ABI_1_0 4:14.12.0
 _ZN6Kasten13ByteArrayView13selectAllDataEb@ABI_1_0 4:14.12.0
 _ZN6Kasten13ByteArrayView13setCharCodingERK7QString@ABI_1_0 4:14.12.0
 _ZN6Kasten13ByteArrayView14setLayoutStyleEi@ABI_1_0 4:14.12.0
 _ZN6Kasten13ByteArrayView14setValueCodingEi@ABI_1_0 4:14.12.0
 _ZN6Kasten13ByteArrayView15cutSelectedDataEv@ABI_1_0 4:14.12.0
 _ZN6Kasten13ByteArrayView15setOffsetCodingEi@ABI_1_0 4:14.12.0
 _ZN6Kasten13ByteArrayView16charCodecChangedERK7QString@ABI_1_0 4:14.12.0
 _ZN6Kasten13ByteArrayView16setOverwriteModeEb@ABI_1_0 4:14.12.0
 _ZN6Kasten13ByteArrayView16setUndefinedCharE5QChar@ABI_1_0 4:14.12.0
 _ZN6Kasten13ByteArrayView16staticMetaObjectE@ABI_1_0 4:14.12.0
 _ZN6Kasten13ByteArrayView16viewModusChangedEi@ABI_1_0 4:14.12.0
 _ZN6Kasten13ByteArrayView16zoomLevelChangedEd@ABI_1_0 4:14.12.0
 _ZN6Kasten13ByteArrayView17setCursorPositionEi@ABI_1_0 4:14.12.0
 _ZN6Kasten13ByteArrayView17setSubstituteCharE5QChar@ABI_1_0 4:14.12.0
 _ZN6Kasten13ByteArrayView18deleteSelectedDataEv@ABI_1_0 4:14.12.0
 _ZN6Kasten13ByteArrayView18layoutStyleChangedEi@ABI_1_0 4:14.12.0
 _ZN6Kasten13ByteArrayView18onSelectionChangedERKN3KDE11NumberRangeIiiEE@ABI_1_0 4:14.12.0
 _ZN6Kasten13ByteArrayView18toggleOffsetColumnEb@ABI_1_0 4:14.12.0
 _ZN6Kasten13ByteArrayView18valueCodingChangedEi@ABI_1_0 4:14.12.0
 _ZN6Kasten13ByteArrayView19offsetCodingChangedEi@ABI_1_0 4:14.12.0
 _ZN6Kasten13ByteArrayView19selectedDataChangedEPKNS_22AbstractModelSelectionE@ABI_1_0 4:14.12.0
 _ZN6Kasten13ByteArrayView19setNoOfBytesPerLineEi@ABI_1_0 4:14.12.0
 _ZN6Kasten13ByteArrayView19setNoOfGroupedBytesEi@ABI_1_0 4:14.12.0
 _ZN6Kasten13ByteArrayView19setShowsNonprintingEb@ABI_1_0 4:14.12.0
 _ZN6Kasten13ByteArrayView20overwriteModeChangedEb@ABI_1_0 4:14.12.0
 _ZN6Kasten13ByteArrayView20undefinedCharChangedE5QChar@ABI_1_0 4:14.12.0
 _ZN6Kasten13ByteArrayView21cursorPositionChangedEi@ABI_1_0 4:14.12.0
 _ZN6Kasten13ByteArrayView21substituteCharChangedE5QChar@ABI_1_0 4:14.12.0
 _ZN6Kasten13ByteArrayView22hasSelectedDataChangedEb@ABI_1_0 4:14.12.0
 _ZN6Kasten13ByteArrayView23noOfBytesPerLineChangedEi@ABI_1_0 4:14.12.0
 _ZN6Kasten13ByteArrayView23noOfGroupedBytesChangedEi@ABI_1_0 4:14.12.0
 _ZN6Kasten13ByteArrayView23setFontByGlobalSettingsEv@ABI_1_0 4:14.12.0
 _ZN6Kasten13ByteArrayView23showsNonprintingChangedEb@ABI_1_0 4:14.12.0
 _ZN6Kasten13ByteArrayView26offsetColumnVisibleChangedEb@ABI_1_0 4:14.12.0
 _ZN6Kasten13ByteArrayView26setSelectionCursorPositionEi@ABI_1_0 4:14.12.0
 _ZN6Kasten13ByteArrayView26setVisibleByteArrayCodingsEi@ABI_1_0 4:14.12.0
 _ZN6Kasten13ByteArrayView30visibleByteArrayCodingsChangedEi@ABI_1_0 4:14.12.0
 _ZN6Kasten13ByteArrayView4initEv@ABI_1_0 4:14.12.0
 _ZN6Kasten13ByteArrayView6insertERK10QByteArray@ABI_1_0 4:14.12.0
 _ZN6Kasten13ByteArrayView8setFocusEv@ABI_1_0 4:14.12.0
 _ZN6Kasten13ByteArrayViewC1EPNS_17ByteArrayDocumentEPNS_32ByteArrayViewProfileSynchronizerE@ABI_1_0 4:14.12.0
 _ZN6Kasten13ByteArrayViewC1EPS0_PNS_32ByteArrayViewProfileSynchronizerE6QFlagsIN2Qt13AlignmentFlagEE@ABI_1_0 4:14.12.0
 _ZN6Kasten13ByteArrayViewC2EPNS_17ByteArrayDocumentEPNS_32ByteArrayViewProfileSynchronizerE@ABI_1_0 4:14.12.0
 _ZN6Kasten13ByteArrayViewC2EPS0_PNS_32ByteArrayViewProfileSynchronizerE6QFlagsIN2Qt13AlignmentFlagEE@ABI_1_0 4:14.12.0
 _ZN6Kasten13ByteArrayViewD0Ev@ABI_1_0 4:14.12.0
 _ZN6Kasten13ByteArrayViewD1Ev@ABI_1_0 4:14.12.0
 _ZN6Kasten13ByteArrayViewD2Ev@ABI_1_0 4:14.12.0
 _ZN6Kasten19AbstractViewFactory16createCopyOfViewEPNS_12AbstractViewE6QFlagsIN2Qt13AlignmentFlagEE@ABI_1_0 4:14.12.0
 _ZN6Kasten20ByteArrayViewFactory13createViewForEPNS_16AbstractDocumentE@ABI_1_0 4:14.12.0
 _ZN6Kasten20ByteArrayViewFactory16createCopyOfViewEPNS_12AbstractViewE6QFlagsIN2Qt13AlignmentFlagEE@ABI_1_0 4:14.12.0
 _ZN6Kasten20ByteArrayViewFactoryC1EPNS_27ByteArrayViewProfileManagerE@ABI_1_0 4:14.12.0
 _ZN6Kasten20ByteArrayViewFactoryC2EPNS_27ByteArrayViewProfileManagerE@ABI_1_0 4:14.12.0
 _ZN6Kasten20ByteArrayViewFactoryD0Ev@ABI_1_0 4:14.12.0
 _ZN6Kasten20ByteArrayViewFactoryD1Ev@ABI_1_0 4:14.12.0
 _ZN6Kasten20ByteArrayViewFactoryD2Ev@ABI_1_0 4:14.12.0
 _ZN6Kasten20ByteArrayViewProfile12setViewModusEi@ABI_1_0 4:14.12.0
 _ZN6Kasten20ByteArrayViewProfile13setCharCodingERK7QString@ABI_1_0 4:14.12.0
 _ZN6Kasten20ByteArrayViewProfile14setLayoutStyleEi@ABI_1_0 4:14.12.0
 _ZN6Kasten20ByteArrayViewProfile14setValueCodingEi@ABI_1_0 4:14.12.0
 _ZN6Kasten20ByteArrayViewProfile15setOffsetCodingEi@ABI_1_0 4:14.12.0
 _ZN6Kasten20ByteArrayViewProfile16setUndefinedCharERK5QChar@ABI_1_0 4:14.12.0
 _ZN6Kasten20ByteArrayViewProfile17setSubstituteCharERK5QChar@ABI_1_0 4:14.12.0
 _ZN6Kasten20ByteArrayViewProfile19setNoOfBytesPerLineEi@ABI_1_0 4:14.12.0
 _ZN6Kasten20ByteArrayViewProfile19setNoOfGroupedBytesEi@ABI_1_0 4:14.12.0
 _ZN6Kasten20ByteArrayViewProfile19setShowsNonprintingEb@ABI_1_0 4:14.12.0
 _ZN6Kasten20ByteArrayViewProfile19setViewProfileTitleERK7QString@ABI_1_0 4:14.12.0
 _ZN6Kasten20ByteArrayViewProfile22setOffsetColumnVisibleEb@ABI_1_0 4:14.12.0
 _ZN6Kasten20ByteArrayViewProfile26setVisibleByteArrayCodingsEi@ABI_1_0 4:14.12.0
 _ZN6Kasten20ByteArrayViewProfile5setIdERK7QString@ABI_1_0 4:14.12.0
 _ZN6Kasten20ByteArrayViewProfileC1ERKS0_@ABI_1_0 4:14.12.0
 _ZN6Kasten20ByteArrayViewProfileC1Ev@ABI_1_0 4:14.12.0
 _ZN6Kasten20ByteArrayViewProfileC2ERKS0_@ABI_1_0 4:14.12.0
 _ZN6Kasten20ByteArrayViewProfileC2Ev@ABI_1_0 4:14.12.0
 _ZN6Kasten20ByteArrayViewProfileD1Ev@ABI_1_0 4:14.12.0
 _ZN6Kasten20ByteArrayViewProfileD2Ev@ABI_1_0 4:14.12.0
 _ZN6Kasten20ByteArrayViewProfileaSERKS0_@ABI_1_0 4:14.12.0
 _ZN6Kasten24ByteArrayViewProfileLock6unlockEv@ABI_1_0 4:14.12.0
 _ZN6Kasten24ByteArrayViewProfileLockC1ERK7QStringS3_@ABI_1_0 4:14.12.0
 _ZN6Kasten24ByteArrayViewProfileLockC1ERKS0_@ABI_1_0 4:14.12.0
 _ZN6Kasten24ByteArrayViewProfileLockC2ERK7QStringS3_@ABI_1_0 4:14.12.0
 _ZN6Kasten24ByteArrayViewProfileLockC2ERKS0_@ABI_1_0 4:14.12.0
 _ZN6Kasten24ByteArrayViewProfileLockD1Ev@ABI_1_0 4:14.12.0
 _ZN6Kasten24ByteArrayViewProfileLockD2Ev@ABI_1_0 4:14.12.0
 _ZN6Kasten24ByteArrayViewProfileLockaSERKS0_@ABI_1_0 4:14.12.0
 _ZN6Kasten27ByteArrayViewProfileManager10createLockERK7QString@ABI_1_0 4:14.12.0
 _ZN6Kasten27ByteArrayViewProfileManager11qt_metacallEN11QMetaObject4CallEiPPv@ABI_1_0 4:14.12.0
 _ZN6Kasten27ByteArrayViewProfileManager11qt_metacastEPKc@ABI_1_0 4:14.12.0
 _ZN6Kasten27ByteArrayViewProfileManager16saveViewProfilesER5QListINS_20ByteArrayViewProfileEE@ABI_1_0 4:14.12.0
 _ZN6Kasten27ByteArrayViewProfileManager16staticMetaObjectE@ABI_1_0 4:14.12.0
 _ZN6Kasten27ByteArrayViewProfileManager17removeViewProfileERK7QString@ABI_1_0 4:14.12.0
 _ZN6Kasten27ByteArrayViewProfileManager18removeViewProfilesERK5QListI7QStringE@ABI_1_0 4:14.12.0
 _ZN6Kasten27ByteArrayViewProfileManager18viewProfilesLockedERK5QListI7QStringE@ABI_1_0 4:14.12.0
 _ZN6Kasten27ByteArrayViewProfileManager19viewProfilesChangedERK5QListINS_20ByteArrayViewProfileEE@ABI_1_0 4:14.12.0
 _ZN6Kasten27ByteArrayViewProfileManager19viewProfilesRemovedERK5QListI7QStringE@ABI_1_0 4:14.12.0
 _ZN6Kasten27ByteArrayViewProfileManager20viewProfilesUnlockedERK5QListI7QStringE@ABI_1_0 4:14.12.0
 _ZN6Kasten27ByteArrayViewProfileManager21setDefaultViewProfileERK7QString@ABI_1_0 4:14.12.0
 _ZN6Kasten27ByteArrayViewProfileManager25defaultViewProfileChangedERK7QString@ABI_1_0 4:14.12.0
 _ZN6Kasten27ByteArrayViewProfileManager27onDefaultViewProfileChangedERK7QString@ABI_1_0 4:14.12.0
 _ZN6Kasten27ByteArrayViewProfileManager27onViewProfilesFolderChangedERK7QString@ABI_1_0 4:14.12.0
 _ZN6Kasten27ByteArrayViewProfileManagerC1Ev@ABI_1_0 4:14.12.0
 _ZN6Kasten27ByteArrayViewProfileManagerC2Ev@ABI_1_0 4:14.12.0
 _ZN6Kasten27ByteArrayViewProfileManagerD0Ev@ABI_1_0 4:14.12.0
 _ZN6Kasten27ByteArrayViewProfileManagerD1Ev@ABI_1_0 4:14.12.0
 _ZN6Kasten27ByteArrayViewProfileManagerD2Ev@ABI_1_0 4:14.12.0
 _ZN6Kasten29ByteArrayDataGeneratorFactory20createDataGeneratorsEv@ABI_1_0 4:14.12.0
 _ZN6Kasten29ByteArrayStreamEncoderFactory20createStreamEncodersEv@ABI_1_0 4:14.12.0
 _ZN6Kasten30AbstractByteArrayStreamEncoder11previewDataEPNS_13AbstractModelEPKNS_22AbstractModelSelectionE@ABI_1_0 4:14.12.0
 _ZN6Kasten30AbstractByteArrayStreamEncoder11qt_metacallEN11QMetaObject4CallEiPPv@ABI_1_0 4:14.12.0
 _ZN6Kasten30AbstractByteArrayStreamEncoder11qt_metacastEPKc@ABI_1_0 4:14.12.0
 _ZN6Kasten30AbstractByteArrayStreamEncoder14encodeToStreamEP9QIODevicePNS_13AbstractModelEPKNS_22AbstractModelSelectionE@ABI_1_0 4:14.12.0
 _ZN6Kasten30AbstractByteArrayStreamEncoder15settingsChangedEv@ABI_1_0 4:14.12.0
 _ZN6Kasten30AbstractByteArrayStreamEncoder16staticMetaObjectE@ABI_1_0 4:14.12.0
 _ZN6Kasten30AbstractByteArrayStreamEncoderC1ERK7QStringS3_@ABI_1_0 4:14.12.0
 _ZN6Kasten30AbstractByteArrayStreamEncoderC2ERK7QStringS3_@ABI_1_0 4:14.12.0
 _ZN6Kasten30AbstractByteArrayStreamEncoderD0Ev@ABI_1_0 4:14.12.0
 _ZN6Kasten30AbstractByteArrayStreamEncoderD1Ev@ABI_1_0 4:14.12.0
 _ZN6Kasten30AbstractByteArrayStreamEncoderD2Ev@ABI_1_0 4:14.12.0
 _ZN6Kasten32ByteArrayViewProfileSynchronizer10updateViewERKNS_20ByteArrayViewProfileE@ABI_1_0 4:14.12.0
 _ZN6Kasten32ByteArrayViewProfileSynchronizer11qt_metacallEN11QMetaObject4CallEiPPv@ABI_1_0 4:14.12.0
 _ZN6Kasten32ByteArrayViewProfileSynchronizer11qt_metacastEPKc@ABI_1_0 4:14.12.0
 _ZN6Kasten32ByteArrayViewProfileSynchronizer12setDirtyFlagEi@ABI_1_0 4:14.12.0
 _ZN6Kasten32ByteArrayViewProfileSynchronizer12syncToRemoteEv@ABI_1_0 4:14.12.0
 _ZN6Kasten32ByteArrayViewProfileSynchronizer14syncFromRemoteEv@ABI_1_0 4:14.12.0
 _ZN6Kasten32ByteArrayViewProfileSynchronizer16setViewProfileIdERK7QString@ABI_1_0 4:14.12.0
 _ZN6Kasten32ByteArrayViewProfileSynchronizer16staticMetaObjectE@ABI_1_0 4:14.12.0
 _ZN6Kasten32ByteArrayViewProfileSynchronizer17updateViewProfileERNS_20ByteArrayViewProfileE@ABI_1_0 4:14.12.0
 _ZN6Kasten32ByteArrayViewProfileSynchronizer18connectViewSignalsEv@ABI_1_0 4:14.12.0
 _ZN6Kasten32ByteArrayViewProfileSynchronizer18onCharCodecChangedEv@ABI_1_0 4:14.12.0
 _ZN6Kasten32ByteArrayViewProfileSynchronizer18onViewModusChangedEv@ABI_1_0 4:14.12.0
 _ZN6Kasten32ByteArrayViewProfileSynchronizer18viewProfileChangedERK7QString@ABI_1_0 4:14.12.0
 _ZN6Kasten32ByteArrayViewProfileSynchronizer20onLayoutStyleChangedEv@ABI_1_0 4:14.12.0
 _ZN6Kasten32ByteArrayViewProfileSynchronizer20onValueCodingChangedEv@ABI_1_0 4:14.12.0
 _ZN6Kasten32ByteArrayViewProfileSynchronizer21localSyncStateChangedENS_14LocalSyncStateE@ABI_1_0 4:14.12.0
 _ZN6Kasten32ByteArrayViewProfileSynchronizer21onOffsetCodingChangedEv@ABI_1_0 4:14.12.0
 _ZN6Kasten32ByteArrayViewProfileSynchronizer21onViewProfilesChangedERK5QListINS_20ByteArrayViewProfileEE@ABI_1_0 4:14.12.0
 _ZN6Kasten32ByteArrayViewProfileSynchronizer21onViewProfilesRemovedERK5QListI7QStringE@ABI_1_0 4:14.12.0
 _ZN6Kasten32ByteArrayViewProfileSynchronizer22onUndefinedCharChangedEv@ABI_1_0 4:14.12.0
 _ZN6Kasten32ByteArrayViewProfileSynchronizer23onSubstituteCharChangedEv@ABI_1_0 4:14.12.0
 _ZN6Kasten32ByteArrayViewProfileSynchronizer25onNoOfBytesPerLineChangedEv@ABI_1_0 4:14.12.0
 _ZN6Kasten32ByteArrayViewProfileSynchronizer25onNoOfGroupedBytesChangedEv@ABI_1_0 4:14.12.0
 _ZN6Kasten32ByteArrayViewProfileSynchronizer25onShowsNonprintingChangedEv@ABI_1_0 4:14.12.0
 _ZN6Kasten32ByteArrayViewProfileSynchronizer28onOffsetColumnVisibleChangedEv@ABI_1_0 4:14.12.0
 _ZN6Kasten32ByteArrayViewProfileSynchronizer32onVisibleByteArrayCodingsChangedEv@ABI_1_0 4:14.12.0
 _ZN6Kasten32ByteArrayViewProfileSynchronizer7setViewEPNS_13ByteArrayViewE@ABI_1_0 4:14.12.0
 _ZN6Kasten32ByteArrayViewProfileSynchronizerC1EPNS_27ByteArrayViewProfileManagerE@ABI_1_0 4:14.12.0
 _ZN6Kasten32ByteArrayViewProfileSynchronizerC2EPNS_27ByteArrayViewProfileManagerE@ABI_1_0 4:14.12.0
 _ZN6Kasten32ByteArrayViewProfileSynchronizerD0Ev@ABI_1_0 4:14.12.0
 _ZN6Kasten32ByteArrayViewProfileSynchronizerD1Ev@ABI_1_0 4:14.12.0
 _ZN6Kasten32ByteArrayViewProfileSynchronizerD2Ev@ABI_1_0 4:14.12.0
 _ZN6Kasten48ByteArrayDataGeneratorConfigEditorFactoryFactory14createFactorysEv@ABI_1_0 4:14.12.0
 _ZN6Kasten48ByteArrayStreamEncoderConfigEditorFactoryFactory14createFactorysEv@ABI_1_0 4:14.12.0
 _ZN6Okteta15AddressComboBox11qt_metacallEN11QMetaObject4CallEiPPv@ABI_1_0 4:14.12.0
 _ZN6Okteta15AddressComboBox11qt_metacastEPKc@ABI_1_0 4:14.12.0
 _ZN6Okteta15AddressComboBox13formatChangedEi@ABI_1_0 4:14.12.0
 _ZN6Okteta15AddressComboBox14addressChangedEi@ABI_1_0 4:14.12.0
 _ZN6Okteta15AddressComboBox16staticMetaObjectE@ABI_1_0 4:14.12.0
 _ZN6Okteta15AddressComboBox18addressTypeChangedEi@ABI_1_0 4:14.12.0
 _ZN6Okteta15AddressComboBox22rememberCurrentAddressEv@ABI_1_0 4:14.12.0
 _ZN6Okteta15AddressComboBoxC1EP7QWidget@ABI_1_0 4:14.12.0
 _ZN6Okteta15AddressComboBoxC2EP7QWidget@ABI_1_0 4:14.12.0
 _ZN6Okteta15AddressComboBoxD0Ev@ABI_1_0 4:14.12.0
 _ZN6Okteta15AddressComboBoxD1Ev@ABI_1_0 4:14.12.0
 _ZN6Okteta15AddressComboBoxD2Ev@ABI_1_0 4:14.12.0
 _ZN6Okteta17ByteArrayComboBox11qt_metacallEN11QMetaObject4CallEiPPv@ABI_1_0 4:14.12.0
 _ZN6Okteta17ByteArrayComboBox11qt_metacastEPKc@ABI_1_0 4:14.12.0
 _ZN6Okteta17ByteArrayComboBox12setByteArrayERK10QByteArray@ABI_1_0 4:14.12.0
 _ZN6Okteta17ByteArrayComboBox12setCharCodecERK7QString@ABI_1_0 4:14.12.0
 _ZN6Okteta17ByteArrayComboBox12setMaxLengthEi@ABI_1_0 4:14.12.0
 _ZN6Okteta17ByteArrayComboBox12setMinLengthEi@ABI_1_0 4:14.12.0
 _ZN6Okteta17ByteArrayComboBox13formatChangedEi@ABI_1_0 4:14.12.0
 _ZN6Okteta17ByteArrayComboBox16byteArrayChangedERK10QByteArray@ABI_1_0 4:14.12.0
 _ZN6Okteta17ByteArrayComboBox16staticMetaObjectE@ABI_1_0 4:14.12.0
 _ZN6Okteta17ByteArrayComboBox24rememberCurrentByteArrayEv@ABI_1_0 4:14.12.0
 _ZN6Okteta17ByteArrayComboBoxC1EP7QWidget@ABI_1_0 4:14.12.0
 _ZN6Okteta17ByteArrayComboBoxC2EP7QWidget@ABI_1_0 4:14.12.0
 _ZN6Okteta17ByteArrayComboBoxD0Ev@ABI_1_0 4:14.12.0
 _ZN6Okteta17ByteArrayComboBoxD1Ev@ABI_1_0 4:14.12.0
 _ZN6Okteta17ByteArrayComboBoxD2Ev@ABI_1_0 4:14.12.0
 (optional=templinst)_ZNK12KConfigGroup9readEntryIbEET_PKcRKS1_@ABI_1_0 4:14.12.0
 (optional=templinst)_ZNK12KConfigGroup9readEntryIiEET_PKcRKS1_@ABI_1_0 4:14.12.0
 _ZNK6Kasten13ByteArrayView10cursorRectEv@ABI_1_0 4:14.12.0
 _ZNK6Kasten13ByteArrayView10isReadOnlyEv@ABI_1_0 4:14.12.0
 _ZNK6Kasten13ByteArrayView10metaObjectEv@ABI_1_0 4:14.12.0
 _ZNK6Kasten13ByteArrayView11canReadDataEPK9QMimeData@ABI_1_0 4:14.12.0
 _ZNK6Kasten13ByteArrayView11layoutStyleEv@ABI_1_0 4:14.12.0
 _ZNK6Kasten13ByteArrayView11startOffsetEv@ABI_1_0 4:14.12.0
 _ZNK6Kasten13ByteArrayView11valueCodingEv@ABI_1_0 4:14.12.0
 _ZNK6Kasten13ByteArrayView12isModifiableEv@ABI_1_0 4:14.12.0
 _ZNK6Kasten13ByteArrayView12offsetCodingEv@ABI_1_0 4:14.12.0
 _ZNK6Kasten13ByteArrayView12synchronizerEv@ABI_1_0 4:14.12.0
 _ZNK6Kasten13ByteArrayView13undefinedCharEv@ABI_1_0 4:14.12.0
 _ZNK6Kasten13ByteArrayView14binaryGapWidthEv@ABI_1_0 4:14.12.0
 _ZNK6Kasten13ByteArrayView14charCodingNameEv@ABI_1_0 4:14.12.0
 _ZNK6Kasten13ByteArrayView14cursorPositionEv@ABI_1_0 4:14.12.0
 _ZNK6Kasten13ByteArrayView14modelSelectionEv@ABI_1_0 4:14.12.0
 _ZNK6Kasten13ByteArrayView14substituteCharEv@ABI_1_0 4:14.12.0
 _ZNK6Kasten13ByteArrayView15firstLineOffsetEv@ABI_1_0 4:14.12.0
 _ZNK6Kasten13ByteArrayView15hasSelectedDataEv@ABI_1_0 4:14.12.0
 _ZNK6Kasten13ByteArrayView15isOverwriteModeEv@ABI_1_0 4:14.12.0
 _ZNK6Kasten13ByteArrayView15isOverwriteOnlyEv@ABI_1_0 4:14.12.0
 _ZNK6Kasten13ByteArrayView16byteSpacingWidthEv@ABI_1_0 4:14.12.0
 _ZNK6Kasten13ByteArrayView16copySelectedDataEv@ABI_1_0 4:14.12.0
 _ZNK6Kasten13ByteArrayView16noOfBytesPerLineEv@ABI_1_0 4:14.12.0
 _ZNK6Kasten13ByteArrayView16noOfGroupedBytesEv@ABI_1_0 4:14.12.0
 _ZNK6Kasten13ByteArrayView16showsNonprintingEv@ABI_1_0 4:14.12.0
 _ZNK6Kasten13ByteArrayView17groupSpacingWidthEv@ABI_1_0 4:14.12.0
 _ZNK6Kasten13ByteArrayView19offsetColumnVisibleEv@ABI_1_0 4:14.12.0
 _ZNK6Kasten13ByteArrayView23visibleByteArrayCodingsEv@ABI_1_0 4:14.12.0
 _ZNK6Kasten13ByteArrayView5titleEv@ABI_1_0 4:14.12.0
 _ZNK6Kasten13ByteArrayView6widgetEv@ABI_1_0 4:14.12.0
 _ZNK6Kasten13ByteArrayView8hasFocusEv@ABI_1_0 4:14.12.0
 _ZNK6Kasten13ByteArrayView9selectionEv@ABI_1_0 4:14.12.0
 _ZNK6Kasten13ByteArrayView9viewModusEv@ABI_1_0 4:14.12.0
 _ZNK6Kasten13ByteArrayView9zoomLevelEv@ABI_1_0 4:14.12.0
 _ZNK6Kasten20ByteArrayViewProfile11layoutStyleEv@ABI_1_0 4:14.12.0
 _ZNK6Kasten20ByteArrayViewProfile11valueCodingEv@ABI_1_0 4:14.12.0
 _ZNK6Kasten20ByteArrayViewProfile12offsetCodingEv@ABI_1_0 4:14.12.0
 _ZNK6Kasten20ByteArrayViewProfile13undefinedCharEv@ABI_1_0 4:14.12.0
 _ZNK6Kasten20ByteArrayViewProfile14charCodingNameEv@ABI_1_0 4:14.12.0
 _ZNK6Kasten20ByteArrayViewProfile14substituteCharEv@ABI_1_0 4:14.12.0
 _ZNK6Kasten20ByteArrayViewProfile16noOfBytesPerLineEv@ABI_1_0 4:14.12.0
 _ZNK6Kasten20ByteArrayViewProfile16noOfGroupedBytesEv@ABI_1_0 4:14.12.0
 _ZNK6Kasten20ByteArrayViewProfile16showsNonprintingEv@ABI_1_0 4:14.12.0
 _ZNK6Kasten20ByteArrayViewProfile16viewProfileTitleEv@ABI_1_0 4:14.12.0
 _ZNK6Kasten20ByteArrayViewProfile19offsetColumnVisibleEv@ABI_1_0 4:14.12.0
 _ZNK6Kasten20ByteArrayViewProfile23visibleByteArrayCodingsEv@ABI_1_0 4:14.12.0
 _ZNK6Kasten20ByteArrayViewProfile2idEv@ABI_1_0 4:14.12.0
 _ZNK6Kasten20ByteArrayViewProfile9viewModusEv@ABI_1_0 4:14.12.0
 _ZNK6Kasten24ByteArrayViewProfileLock13viewProfileIdEv@ABI_1_0 4:14.12.0
 _ZNK6Kasten24ByteArrayViewProfileLock8isLockedEv@ABI_1_0 4:14.12.0
 _ZNK6Kasten27ByteArrayViewProfileManager10metaObjectEv@ABI_1_0 4:14.12.0
 _ZNK6Kasten27ByteArrayViewProfileManager11viewProfileERK7QString@ABI_1_0 4:14.12.0
 _ZNK6Kasten27ByteArrayViewProfileManager12viewProfilesEv@ABI_1_0 4:14.12.0
 _ZNK6Kasten27ByteArrayViewProfileManager15loadViewProfileERK7QString@ABI_1_0 4:14.12.0
 _ZNK6Kasten27ByteArrayViewProfileManager15saveViewProfileERKNS_20ByteArrayViewProfileE@ABI_1_0 4:14.12.0
 _ZNK6Kasten27ByteArrayViewProfileManager17viewProfilesCountEv@ABI_1_0 4:14.12.0
 _ZNK6Kasten27ByteArrayViewProfileManager18defaultViewProfileEv@ABI_1_0 4:14.12.0
 _ZNK6Kasten27ByteArrayViewProfileManager19isViewProfileLockedERK7QString@ABI_1_0 4:14.12.0
 _ZNK6Kasten27ByteArrayViewProfileManager20defaultViewProfileIdEv@ABI_1_0 4:14.12.0
 _ZNK6Kasten27ByteArrayViewProfileManager21filePathOfViewProfileERK7QString@ABI_1_0 4:14.12.0
 _ZNK6Kasten30AbstractByteArrayStreamEncoder10metaObjectEv@ABI_1_0 4:14.12.0
 _ZNK6Kasten30AbstractByteArrayStreamEncoder13modelTypeNameEPNS_13AbstractModelEPKNS_22AbstractModelSelectionE@ABI_1_0 4:14.12.0
 _ZNK6Kasten32ByteArrayViewProfileSynchronizer10metaObjectEv@ABI_1_0 4:14.12.0
 _ZNK6Kasten32ByteArrayViewProfileSynchronizer14localSyncStateEv@ABI_1_0 4:14.12.0
 _ZNK6Okteta15AddressComboBox10metaObjectEv@ABI_1_0 4:14.12.0
 _ZNK6Okteta15AddressComboBox11addressTypeEv@ABI_1_0 4:14.12.0
 _ZNK6Okteta15AddressComboBox6formatEv@ABI_1_0 4:14.12.0
 _ZNK6Okteta15AddressComboBox7addressEv@ABI_1_0 4:14.12.0
 _ZNK6Okteta17ByteArrayComboBox10metaObjectEv@ABI_1_0 4:14.12.0
 _ZNK6Okteta17ByteArrayComboBox6formatEv@ABI_1_0 4:14.12.0
 _ZNK6Okteta17ByteArrayComboBox9byteArrayEv@ABI_1_0 4:14.12.0
 _ZNK6Okteta17ByteArrayComboBox9maxLengthEv@ABI_1_0 4:14.12.0
 _ZNK6Okteta17ByteArrayComboBox9minLengthEv@ABI_1_0 4:14.12.0
 _ZTVN6Kasten13ByteArrayViewE@ABI_1_0 4:14.12.0
 _ZTVN6Kasten19AbstractViewFactoryE@ABI_1_0 4:14.12.0
 _ZTVN6Kasten20ByteArrayViewFactoryE@ABI_1_0 4:14.12.0
 _ZTVN6Kasten27ByteArrayViewProfileManagerE@ABI_1_0 4:14.12.0
 _ZTVN6Kasten30AbstractByteArrayStreamEncoderE@ABI_1_0 4:14.12.0
 _ZTVN6Kasten32ByteArrayViewProfileSynchronizerE@ABI_1_0 4:14.12.0
 _ZTVN6Kasten45AbstractModelDataGeneratorConfigEditorFactoryE@ABI_1_0 4:14.12.0
 _ZTVN6Kasten45AbstractModelStreamEncoderConfigEditorFactoryE@ABI_1_0 4:14.12.0
 _ZTVN6Okteta15AddressComboBoxE@ABI_1_0 4:14.12.0
 _ZTVN6Okteta17ByteArrayComboBoxE@ABI_1_0 4:14.12.0
 (c++)"non-virtual thunk to Kasten::ByteArrayView::canReadData(QMimeData const*) const@ABI_1_0" 4:14.12.0
 (c++)"non-virtual thunk to Kasten::ByteArrayView::copySelectedData() const@ABI_1_0" 4:14.12.0
 (c++)"non-virtual thunk to Kasten::ByteArrayView::cutSelectedData()@ABI_1_0" 4:14.12.0
 (c++)"non-virtual thunk to Kasten::ByteArrayView::deleteSelectedData()@ABI_1_0" 4:14.12.0
 (c++)"non-virtual thunk to Kasten::ByteArrayView::hasSelectedData() const@ABI_1_0" 4:14.12.0
 (c++)"non-virtual thunk to Kasten::ByteArrayView::hasSelectedDataChanged(bool)@ABI_1_0" 4:14.12.0
 (c++)"non-virtual thunk to Kasten::ByteArrayView::insertData(QMimeData const*)@ABI_1_0" 4:14.12.0
 (c++)"non-virtual thunk to Kasten::ByteArrayView::modelSelection() const@ABI_1_0" 4:14.12.0
 (c++)"non-virtual thunk to Kasten::ByteArrayView::selectAllData(bool)@ABI_1_0" 4:14.12.0
 (c++)"non-virtual thunk to Kasten::ByteArrayView::selectedDataChanged(Kasten::AbstractModelSelection const*)@ABI_1_0" 4:14.12.0
 (c++)"non-virtual thunk to Kasten::ByteArrayView::setZoomLevel(double)@ABI_1_0" 4:14.12.0
 (c++)"non-virtual thunk to Kasten::ByteArrayView::zoomLevel() const@ABI_1_0" 4:14.12.0
 (c++)"non-virtual thunk to Kasten::ByteArrayView::zoomLevelChanged(double)@ABI_1_0" 4:14.12.0
 (c++)"non-virtual thunk to Kasten::ByteArrayView::~ByteArrayView()@ABI_1_0" 4:14.12.0
 (c++)"non-virtual thunk to Okteta::AddressComboBox::~AddressComboBox()@ABI_1_0" 4:14.12.0
 (c++)"non-virtual thunk to Okteta::ByteArrayComboBox::~ByteArrayComboBox()@ABI_1_0" 4:14.12.0
