# SymbolsHelper-Confirmed: 4:15.12.0 amd64 arm64 armel i386 kfreebsd-amd64 kfreebsd-i386 mips mips64el mipsel powerpc ppc64el s390x
libkasten3okteta1controllers.so.1 libkasten3okteta1controllers1 #MINVER#
 (optional=templinst|arch=!arm64 !armel !mips !mips64el !mipsel !powerpc !ppc64 !ppc64el !s390x)_Z17qRegisterMetaTypeI12QScriptValueEiPKcPT_N9QtPrivate21MetaTypeDefinedHelperIS3_Xaasr12QMetaTypeId2IS3_E7DefinedntsrS8_9IsBuiltInEE11DefinedTypeE@Base 4:14.12.0
 (optional=templinst)_Z27qRegisterNormalizedMetaTypeI12Hexadecimal8EiRK10QByteArrayPT_N9QtPrivate21MetaTypeDefinedHelperIS4_Xaasr12QMetaTypeId2IS4_E7DefinedntsrS9_9IsBuiltInEE11DefinedTypeE@Base 4:14.12.0
 (optional=templinst)_Z27qRegisterNormalizedMetaTypeI12QScriptValueEiRK10QByteArrayPT_N9QtPrivate21MetaTypeDefinedHelperIS4_Xaasr12QMetaTypeId2IS4_E7DefinedntsrS9_9IsBuiltInEE11DefinedTypeE@Base 4:15.08.0
 (optional=templinst|arch=amd64 armhf i386 kfreebsd-amd64 kfreebsd-i386)_Z27qRegisterNormalizedMetaTypeI13SafeReferenceEiRK10QByteArrayPT_N9QtPrivate21MetaTypeDefinedHelperIS4_Xaasr12QMetaTypeId2IS4_E7DefinedntsrS9_9IsBuiltInEE11DefinedTypeE@Base 4:15.08.0
 (optional=templinst|arch=!arm64 !armel !mips !mips64el !mipsel !powerpc !ppc64el !s390x)_Z27qRegisterNormalizedMetaTypeI4Utf8EiRK10QByteArrayPT_N9QtPrivate21MetaTypeDefinedHelperIS4_Xaasr12QMetaTypeId2IS4_E7DefinedntsrS9_9IsBuiltInEE11DefinedTypeE@Base 4:15.08.0
 (optional=templinst)_Z27qRegisterNormalizedMetaTypeI5Char8EiRK10QByteArrayPT_N9QtPrivate21MetaTypeDefinedHelperIS4_Xaasr12QMetaTypeId2IS4_E7DefinedntsrS9_9IsBuiltInEE11DefinedTypeE@Base 4:14.12.0
 (optional=templinst)_Z27qRegisterNormalizedMetaTypeI6Octal8EiRK10QByteArrayPT_N9QtPrivate21MetaTypeDefinedHelperIS4_Xaasr12QMetaTypeId2IS4_E7DefinedntsrS9_9IsBuiltInEE11DefinedTypeE@Base 4:14.12.0
 (optional=templinst|arch=!arm64 !armel !mips !mips64el !mipsel !powerpc !ppc64el !s390x)_Z27qRegisterNormalizedMetaTypeI7Binary8EiRK10QByteArrayPT_N9QtPrivate21MetaTypeDefinedHelperIS4_Xaasr12QMetaTypeId2IS4_E7DefinedntsrS9_9IsBuiltInEE11DefinedTypeE@Base 4:15.08.0
 (optional=templinst)_Z27qRegisterNormalizedMetaTypeI7Float32EiRK10QByteArrayPT_N9QtPrivate21MetaTypeDefinedHelperIS4_Xaasr12QMetaTypeId2IS4_E7DefinedntsrS9_9IsBuiltInEE11DefinedTypeE@Base 4:14.12.0
 (optional=templinst)_Z27qRegisterNormalizedMetaTypeI7Float64EiRK10QByteArrayPT_N9QtPrivate21MetaTypeDefinedHelperIS4_Xaasr12QMetaTypeId2IS4_E7DefinedntsrS9_9IsBuiltInEE11DefinedTypeE@Base 4:14.12.0
 _Z40LOG_KASTEN_OKTETA_CONTROLLERS_STRUCTURESv@Base 4:14.12.0
 _ZN10StringData15setLittleEndianEb@Base 4:14.12.0
 _ZN10StringData23setTerminationCodePointEj@Base 4:14.12.0
 _ZN10StringDataC1EP21StringDataInformation@Base 4:14.12.0
 _ZN10StringDataC2EP21StringDataInformation@Base 4:14.12.0
 _ZN10StringDataD0Ev@Base 4:14.12.0
 _ZN10StringDataD1Ev@Base 4:14.12.0
 _ZN10StringDataD2Ev@Base 4:14.12.0
 _ZN10Utf8Editor11qt_metacallEN11QMetaObject4CallEiPPv@Base 4:14.12.0
 _ZN10Utf8Editor11qt_metacastEPKc@Base 4:14.12.0
 _ZN10Utf8Editor16staticMetaObjectE@Base 4:14.12.0
 _ZN10Utf8Editor7setDataE4Utf8@Base 4:14.12.0
 _ZN10Utf8EditorC1EP7QWidget@Base 4:14.12.0
 _ZN10Utf8EditorC2EP7QWidget@Base 4:14.12.0
 _ZN10Utf8EditorD0Ev@Base 4:14.12.0
 _ZN10Utf8EditorD1Ev@Base 4:14.12.0
 _ZN10Utf8EditorD2Ev@Base 4:14.12.0
 _ZN11Char8Editor11qt_metacallEN11QMetaObject4CallEiPPv@Base 4:14.12.0
 _ZN11Char8Editor11qt_metacastEPKc@Base 4:14.12.0
 _ZN11Char8Editor16staticMetaObjectE@Base 4:14.12.0
 _ZN11Char8Editor7setDataE5Char8@Base 4:14.12.0
 _ZN11Char8EditorC1EPN6Okteta9CharCodecEP7QWidget@Base 4:14.12.0
 _ZN11Char8EditorC2EPN6Okteta9CharCodecEP7QWidget@Base 4:14.12.0
 _ZN11Char8EditorD0Ev@Base 4:14.12.0
 _ZN11Char8EditorD1Ev@Base 4:14.12.0
 _ZN11Char8EditorD2Ev@Base 4:14.12.0
 _ZN11ParserUtils13intFromStringERK7QString@Base 4:14.12.0
 _ZN11ParserUtils14uintFromStringERK7QString@Base 4:14.12.0
 _ZN11ParserUtils16functionSafeEvalEP13QScriptEngineRK7QString@Base 4:14.12.0
 _ZN11ParserUtils16toStringEncodingERK7QStringRK17LoggerWithContext@Base 4:14.12.0
 _ZN11ParserUtils16uint64FromStringERK7QString@Base 4:14.12.0
 _ZN11ParserUtils17byteOrderToStringEN15DataInformation24DataInformationEndianessE@Base 4:14.12.0
 _ZN11ParserUtils18intFromScriptValueERK12QScriptValue@Base 4:14.12.0
 _ZN11ParserUtils19byteOrderFromStringERK7QStringRK17LoggerWithContext@Base 4:14.12.0
 _ZN11ParserUtils19uintFromScriptValueERK12QScriptValue@Base 4:14.12.0
 _ZN11ParserUtils21uint64FromScriptValueERK12QScriptValue@Base 4:14.12.0
 _ZN11SIntSpinBox11qt_metacallEN11QMetaObject4CallEiPPv@Base 4:14.12.0
 _ZN11SIntSpinBox11qt_metacastEPKc@Base 4:14.12.0
 _ZN11SIntSpinBox16staticMetaObjectE@Base 4:14.12.0
 _ZN11SIntSpinBox6stepByEi@Base 4:14.12.0
 _ZN11SIntSpinBoxD0Ev@Base 4:14.12.0
 _ZN11SIntSpinBoxD1Ev@Base 4:14.12.0
 _ZN11SIntSpinBoxD2Ev@Base 4:14.12.0
 _ZN11UIntSpinBox11qt_metacallEN11QMetaObject4CallEiPPv@Base 4:14.12.0
 _ZN11UIntSpinBox11qt_metacastEPKc@Base 4:14.12.0
 _ZN11UIntSpinBox16staticMetaObjectE@Base 4:14.12.0
 _ZN11UIntSpinBox6stepByEi@Base 4:14.12.0
 _ZN11UIntSpinBoxD0Ev@Base 4:14.12.0
 _ZN11UIntSpinBoxD1Ev@Base 4:14.12.0
 _ZN11UIntSpinBoxD2Ev@Base 4:14.12.0
 _ZN12Octal8Editor11qt_metacallEN11QMetaObject4CallEiPPv@Base 4:14.12.0
 _ZN12Octal8Editor11qt_metacastEPKc@Base 4:14.12.0
 _ZN12Octal8Editor16staticMetaObjectE@Base 4:14.12.0
 _ZN12Octal8Editor7setDataE6Octal8@Base 4:14.12.0
 _ZN12Octal8EditorC1EP7QWidget@Base 4:14.12.0
 _ZN12Octal8EditorC2EP7QWidget@Base 4:14.12.0
 _ZN12Octal8EditorD0Ev@Base 4:14.12.0
 _ZN12Octal8EditorD1Ev@Base 4:14.12.0
 _ZN12Octal8EditorD2Ev@Base 4:14.12.0
 _ZN12ScriptLogger11qt_metacallEN11QMetaObject4CallEiPPv@Base 4:14.12.0
 _ZN12ScriptLogger11qt_metacastEPKc@Base 4:14.12.0
 _ZN12ScriptLogger12iconForLevelENS_8LogLevelE@Base 4:14.12.0
 _ZN12ScriptLogger16staticMetaObjectE@Base 4:14.12.0
 _ZN12ScriptLogger3logENS_8LogLevelEPK15DataInformation@Base 4:14.12.0
 _ZN12ScriptLogger3logENS_8LogLevelERK7QString@Base 4:14.12.0
 _ZN12ScriptLogger5clearEv@Base 4:14.12.0
 _ZN12ScriptLoggerC1Ev@Base 4:14.12.0
 _ZN12ScriptLoggerC2Ev@Base 4:14.12.0
 _ZN12ScriptLoggerD0Ev@Base 4:14.12.0
 _ZN12ScriptLoggerD1Ev@Base 4:14.12.0
 _ZN12ScriptLoggerD2Ev@Base 4:14.12.0
 _ZN13Binary8Editor11qt_metacallEN11QMetaObject4CallEiPPv@Base 4:14.12.0
 _ZN13Binary8Editor11qt_metacastEPKc@Base 4:14.12.0
 _ZN13Binary8Editor16staticMetaObjectE@Base 4:14.12.0
 _ZN13Binary8Editor7setDataE7Binary8@Base 4:14.12.0
 _ZN13Binary8EditorC1EP7QWidget@Base 4:14.12.0
 _ZN13Binary8EditorC2EP7QWidget@Base 4:14.12.0
 _ZN13Binary8EditorD0Ev@Base 4:14.12.0
 _ZN13Binary8EditorD1Ev@Base 4:14.12.0
 _ZN13Binary8EditorD2Ev@Base 4:14.12.0
 _ZN13Float32Editor11qt_metacallEN11QMetaObject4CallEiPPv@Base 4:14.12.0
 _ZN13Float32Editor11qt_metacastEPKc@Base 4:14.12.0
 _ZN13Float32Editor16staticMetaObjectE@Base 4:14.12.0
 _ZN13Float32Editor7setDataE7Float32@Base 4:14.12.0
 _ZN13Float32EditorC1EP7QWidget@Base 4:14.12.0
 _ZN13Float32EditorC2EP7QWidget@Base 4:14.12.0
 _ZN13Float32EditorD0Ev@Base 4:14.12.0
 _ZN13Float32EditorD1Ev@Base 4:14.12.0
 _ZN13Float32EditorD2Ev@Base 4:14.12.0
 _ZN13Float64Editor11qt_metacallEN11QMetaObject4CallEiPPv@Base 4:14.12.0
 _ZN13Float64Editor11qt_metacastEPKc@Base 4:14.12.0
 _ZN13Float64Editor16staticMetaObjectE@Base 4:14.12.0
 _ZN13Float64Editor7setDataE7Float64@Base 4:14.12.0
 _ZN13Float64EditorC1EP7QWidget@Base 4:14.12.0
 _ZN13Float64EditorC2EP7QWidget@Base 4:14.12.0
 _ZN13Float64EditorD0Ev@Base 4:14.12.0
 _ZN13Float64EditorD1Ev@Base 4:14.12.0
 _ZN13Float64EditorD2Ev@Base 4:14.12.0
 _ZN13PrimitiveType12longTypeNameE17PrimitiveDataType@Base 4:14.12.0
 _ZN13PrimitiveType16standardTypeNameE17PrimitiveDataType@Base 4:14.12.0
 _ZN13PrimitiveType8typeNameE17PrimitiveDataType@Base 4:14.12.0
 _ZN13ScriptHandler12callFunctionE12QScriptValueP15DataInformationN17ScriptHandlerInfo4ModeE@Base 4:14.12.0
 _ZN13ScriptHandler12updateLengthEP20ArrayDataInformation@Base 4:14.12.0
 _ZN13ScriptHandler12validateDataEP15DataInformation@Base 4:14.12.0
 _ZN13ScriptHandler14customToStringEPK15DataInformationRK12QScriptValue@Base 4:14.12.0
 _ZN13ScriptHandler21updateDataInformationEP15DataInformation@Base 4:14.12.0
 _ZN13ScriptHandlerC1EP13QScriptEngineP23TopLevelDataInformation@Base 4:14.12.0
 _ZN13ScriptHandlerC2EP13QScriptEngineP23TopLevelDataInformation@Base 4:14.12.0
 _ZN13ScriptHandlerD0Ev@Base 4:14.12.0
 _ZN13ScriptHandlerD1Ev@Base 4:14.12.0
 _ZN13ScriptHandlerD2Ev@Base 4:14.12.0
 _ZN14Char8ValidatorD0Ev@Base 4:14.12.0
 _ZN14Char8ValidatorD1Ev@Base 4:14.12.0
 _ZN14Char8ValidatorD2Ev@Base 4:14.12.0
 _ZN14EnumDefinition15parseEnumValuesERK12QScriptValueRK17LoggerWithContext17PrimitiveDataType@Base 4:14.12.0
 _ZN14EnumDefinition18convertToEnumEntryERK7QStringRK8QVariantRK17LoggerWithContext17PrimitiveDataType@Base 4:14.12.0
 _ZN14Utf8StringData4readEPN6Okteta22AbstractByteArrayModelEiy@Base 4:14.12.0
 _ZN14Utf8StringDataC1EP21StringDataInformation@Base 4:14.12.0
 _ZN14Utf8StringDataC2EP21StringDataInformation@Base 4:14.12.0
 _ZN14Utf8StringDataD0Ev@Base 4:14.12.0
 _ZN14Utf8StringDataD1Ev@Base 4:14.12.0
 _ZN14Utf8StringDataD2Ev@Base 4:14.12.0
 _ZN15AsciiStringData4readEPN6Okteta22AbstractByteArrayModelEiy@Base 4:14.12.0
 _ZN15AsciiStringDataC1EP21StringDataInformation@Base 4:14.12.0
 _ZN15AsciiStringDataC2EP21StringDataInformation@Base 4:14.12.0
 _ZN15AsciiStringDataD0Ev@Base 4:14.12.0
 _ZN15AsciiStringDataD1Ev@Base 4:14.12.0
 _ZN15AsciiStringDataD2Ev@Base 4:14.12.0
 _ZN15DataInformation13mainStructureEv@Base 4:14.12.0
 _ZN15DataInformation13toScriptValueEP13QScriptEngineP17ScriptHandlerInfo@Base 4:14.12.0
 _ZN15DataInformation13toScriptValueEP23TopLevelDataInformation@Base 4:14.12.0
 _ZN15DataInformation14eofReachedDataEi@Base 4:14.12.0
 _ZN15DataInformation17setCustomTypeNameERK7QString@Base 4:14.12.0
 _ZN15DataInformation18setValidationErrorE7QString@Base 4:14.12.0
 _ZN15DataInformation20resetValidationStateEv@Base 4:14.12.0
 _ZN15DataInformation21setAdditionalFunctionEN14AdditionalData18AdditionalDataTypeERK12QScriptValuePKc@Base 4:14.12.0
 _ZN15DataInformation9beginReadEv@Base 4:14.12.0
 _ZN15DataInformationC1ERK7QStringP19DataInformationBase@Base 4:14.12.0
 _ZN15DataInformationC1ERKS_@Base 4:14.12.0
 _ZN15DataInformationC2ERK7QStringP19DataInformationBase@Base 4:14.12.0
 _ZN15DataInformationC2ERKS_@Base 4:14.12.0
 _ZN15DataInformationD0Ev@Base 4:14.12.0
 _ZN15DataInformationD1Ev@Base 4:14.12.0
 _ZN15DataInformationD2Ev@Base 4:14.12.0
 _ZN15EnumScriptClass18additionalPropertyEPK15DataInformationRK13QScriptStringj@Base 4:14.12.0
 _ZN15EnumScriptClass21setAdditionalPropertyEP15DataInformationRK13QScriptStringjRK12QScriptValue@Base 4:14.12.0
 _ZN15EnumScriptClass23queryAdditionalPropertyEPK15DataInformationRK13QScriptStringP6QFlagsIN12QScriptClass9QueryFlagEEPj@Base 4:14.12.0
 _ZN15EnumScriptClassC1EP13QScriptEngineP17ScriptHandlerInfo@Base 4:14.12.0
 _ZN15EnumScriptClassC2EP13QScriptEngineP17ScriptHandlerInfo@Base 4:14.12.0
 _ZN15EnumScriptClassD0Ev@Base 4:14.12.0
 _ZN15EnumScriptClassD1Ev@Base 4:14.12.0
 _ZN15EnumScriptClassD2Ev@Base 4:14.12.0
 (optional=templinst)_ZN15QVarLengthArrayI5QPairI7QStringyELi10EE7reallocEii@Base 4:14.12.0
 (optional=templinst)_ZN15QtSharedPointer33ExternalRefCountWithCustomDeleterI14ChildrenParserNS_13NormalDeleterEE7deleterEPNS_20ExternalRefCountDataE@Base 4:14.12.0
 _ZN15Utf16StringData4readEPN6Okteta22AbstractByteArrayModelEiy@Base 4:14.12.0
 _ZN15Utf16StringDataC1EP21StringDataInformation@Base 4:14.12.0
 _ZN15Utf16StringDataC2EP21StringDataInformation@Base 4:14.12.0
 _ZN15Utf16StringDataD0Ev@Base 4:14.12.0
 _ZN15Utf16StringDataD1Ev@Base 4:14.12.0
 _ZN15Utf16StringDataD2Ev@Base 4:14.12.0
 _ZN15Utf32StringData4readEPN6Okteta22AbstractByteArrayModelEiy@Base 4:14.12.0
 _ZN15Utf32StringDataC1EP21StringDataInformation@Base 4:14.12.0
 _ZN15Utf32StringDataC2EP21StringDataInformation@Base 4:14.12.0
 _ZN15Utf32StringDataD0Ev@Base 4:14.12.0
 _ZN15Utf32StringDataD1Ev@Base 4:14.12.0
 _ZN15Utf32StringDataD2Ev@Base 4:14.12.0
 _ZN16ArrayScriptClass18additionalPropertyEPK15DataInformationRK13QScriptStringj@Base 4:14.12.0
 _ZN16ArrayScriptClass20Array_proto_toStringEP14QScriptContextP13QScriptEngine@Base 4:14.12.0
 _ZN16ArrayScriptClass21setAdditionalPropertyEP15DataInformationRK13QScriptStringjRK12QScriptValue@Base 4:14.12.0
 _ZN16ArrayScriptClass23additionalPropertyFlagsEPK15DataInformationRK13QScriptStringjP6QFlagsIN12QScriptValue12PropertyFlagEE@Base 4:14.12.0
 _ZN16ArrayScriptClass23queryAdditionalPropertyEPK15DataInformationRK13QScriptStringP6QFlagsIN12QScriptClass9QueryFlagEEPj@Base 4:14.12.0
 _ZN16ArrayScriptClassC1EP13QScriptEngineP17ScriptHandlerInfo@Base 4:14.12.0
 _ZN16ArrayScriptClassC2EP13QScriptEngineP17ScriptHandlerInfo@Base 4:14.12.0
 _ZN16ArrayScriptClassD0Ev@Base 4:14.12.0
 _ZN16ArrayScriptClassD1Ev@Base 4:14.12.0
 _ZN16ArrayScriptClassD2Ev@Base 4:14.12.0
 _ZN16CommonParsedDataD1Ev@Base 4:14.12.0
 _ZN16CommonParsedDataD2Ev@Base 4:14.12.0
 _ZN16ComplexArrayData10childFlagsEiib@Base 4:14.12.0
 _ZN16ComplexArrayData12setChildDataEj8QVariantPN6Okteta22AbstractByteArrayModelEiy@Base 4:14.12.0
 _ZN16ComplexArrayData13toScriptValueEjP13QScriptEngineP17ScriptHandlerInfo@Base 4:14.12.0
 _ZN16ComplexArrayData14appendChildrenEjj@Base 4:14.12.0
 _ZN16ComplexArrayData23setNewParentForChildrenEv@Base 4:14.12.0
 _ZN16ComplexArrayData6dataAtEjii@Base 4:14.12.0
 _ZN16ComplexArrayData6sizeAtEj@Base 4:14.12.0
 _ZN16ComplexArrayData7childAtEj@Base 4:14.12.0
 _ZN16ComplexArrayData8readDataEPN6Okteta22AbstractByteArrayModelEiy@Base 4:14.12.0
 _ZN16ComplexArrayData9setLengthEj@Base 4:14.12.0
 _ZN16ComplexArrayDataC1EjP15DataInformationP20ArrayDataInformation@Base 4:14.12.0
 _ZN16ComplexArrayDataC2EjP15DataInformationP20ArrayDataInformation@Base 4:14.12.0
 _ZN16ComplexArrayDataD0Ev@Base 4:14.12.0
 _ZN16ComplexArrayDataD1Ev@Base 4:14.12.0
 _ZN16ComplexArrayDataD2Ev@Base 4:14.12.0
 _ZN16Latin1StringData4readEPN6Okteta22AbstractByteArrayModelEiy@Base 4:14.12.0
 _ZN16Latin1StringDataC1EP21StringDataInformation@Base 4:14.12.0
 _ZN16Latin1StringDataC2EP21StringDataInformation@Base 4:14.12.0
 _ZN16Latin1StringDataD0Ev@Base 4:14.12.0
 _ZN16Latin1StringDataD1Ev@Base 4:14.12.0
 _ZN16Latin1StringDataD2Ev@Base 4:14.12.0
 _ZN16PrimitiveFactory11newInstanceERK7QString17PrimitiveDataTypeRK17LoggerWithContextP15DataInformation@Base 4:14.12.0
 _ZN16PrimitiveFactory16typeStringToTypeERK7QStringRK17LoggerWithContext@Base 4:14.12.0
 _ZN16ScriptFileParserC1ERK7QStringS2_@Base 4:14.12.0
 _ZN16ScriptFileParserC2ERK7QStringS2_@Base 4:14.12.0
 _ZN16ScriptFileParserD0Ev@Base 4:14.12.0
 _ZN16ScriptFileParserD1Ev@Base 4:14.12.0
 _ZN16ScriptFileParserD2Ev@Base 4:14.12.0
 _ZN16ScriptLoggerView11qt_metacallEN11QMetaObject4CallEiPPv@Base 4:14.12.0
 _ZN16ScriptLoggerView11qt_metacastEPKc@Base 4:14.12.0
 _ZN16ScriptLoggerView11updateModelEi@Base 4:14.12.0
 _ZN16ScriptLoggerView16staticMetaObjectE@Base 4:14.12.0
 _ZN16ScriptLoggerViewC1ERK7QVectorI14QSharedPointerI23TopLevelDataInformationEEP7QWidget@Base 4:14.12.0
 _ZN16ScriptLoggerViewC2ERK7QVectorI14QSharedPointerI23TopLevelDataInformationEEP7QWidget@Base 4:14.12.0
 _ZN16ScriptLoggerViewD0Ev@Base 4:14.12.0
 _ZN16ScriptLoggerViewD1Ev@Base 4:14.12.0
 _ZN16ScriptLoggerViewD2Ev@Base 4:14.12.0
 _ZN17AbstractArrayData12newArrayDataEjP15DataInformationP20ArrayDataInformation@Base 4:14.12.0
 _ZN17AbstractArrayData9setParentEP20ArrayDataInformation@Base 4:14.12.0
 _ZN17AbstractArrayDataC1EP15DataInformationP20ArrayDataInformation@Base 4:14.12.0
 _ZN17AbstractArrayDataC2EP15DataInformationP20ArrayDataInformation@Base 4:14.12.0
 _ZN17AbstractArrayDataD0Ev@Base 4:14.12.0
 _ZN17AbstractArrayDataD1Ev@Base 4:14.12.0
 _ZN17AbstractArrayDataD2Ev@Base 4:14.12.0
 _ZN17AllPrimitiveTypes13readFullBytesEhPKN6Okteta22AbstractByteArrayModelEN8QSysInfo6EndianEi@Base 4:14.12.0
 _ZN17AllPrimitiveTypes14writeFullBytesEhS_PN6Okteta22AbstractByteArrayModelEN8QSysInfo6EndianEi@Base 4:14.12.0
 _ZN17AllPrimitiveTypes17readDataBigEndianEhPKN6Okteta22AbstractByteArrayModelEih@Base 4:14.12.0
 _ZN17AllPrimitiveTypes20readDataLittleEndianEhPKN6Okteta22AbstractByteArrayModelEih@Base 4:14.12.0
 _ZN17AllPrimitiveTypes8readBitsEhPKN6Okteta22AbstractByteArrayModelEN8QSysInfo6EndianEiyPh@Base 4:14.12.0
 _ZN17AllPrimitiveTypes9writeBitsEhS_PN6Okteta22AbstractByteArrayModelEN8QSysInfo6EndianEiyPh@Base 4:14.12.0
 _ZN17OsdChildrenParser4nextEv@Base 4:14.12.0
 _ZN17OsdChildrenParser7hasNextEv@Base 4:14.12.0
 _ZN17OsdChildrenParser9setParentEP15DataInformation@Base 4:14.12.0
 _ZN17OsdChildrenParserC1ERK13OsdParserInfo11QDomElement@Base 4:14.12.0
 _ZN17OsdChildrenParserC2ERK13OsdParserInfo11QDomElement@Base 4:14.12.0
 _ZN17OsdChildrenParserD0Ev@Base 4:14.12.0
 _ZN17OsdChildrenParserD1Ev@Base 4:14.12.0
 _ZN17OsdChildrenParserD2Ev@Base 4:14.12.0
 (optional=templinst)_ZN17QtMetaTypePrivate23QMetaTypeFunctionHelperI12QScriptValueLb1EE8DestructEPv@Base 4:14.12.0
 (optional=templinst)_ZN17QtMetaTypePrivate23QMetaTypeFunctionHelperI12QScriptValueLb1EE9ConstructEPvPKv@Base 4:14.12.0
 (optional=templinst)_ZN17QtMetaTypePrivate23QMetaTypeFunctionHelperI13SafeReferenceLb1EE8DestructEPv@Base 4:14.12.0
 (optional=templinst)_ZN17QtMetaTypePrivate23QMetaTypeFunctionHelperI13SafeReferenceLb1EE9ConstructEPvPKv@Base 4:14.12.0
 _ZN17ScriptHandlerInfoC1EP13QScriptEngineP12ScriptLogger@Base 4:14.12.0
 _ZN17ScriptHandlerInfoC2EP13QScriptEngineP12ScriptLogger@Base 4:14.12.0
 _ZN17ScriptHandlerInfoD1Ev@Base 4:14.12.0
 _ZN17ScriptHandlerInfoD2Ev@Base 4:14.12.0
 _ZN17StringScriptClass18additionalPropertyEPK15DataInformationRK13QScriptStringj@Base 4:14.12.0
 _ZN17StringScriptClass21String_proto_toStringEP14QScriptContextP13QScriptEngine@Base 4:14.12.0
 _ZN17StringScriptClass21setAdditionalPropertyEP15DataInformationRK13QScriptStringjRK12QScriptValue@Base 4:14.12.0
 _ZN17StringScriptClass23additionalPropertyFlagsEPK15DataInformationRK13QScriptStringjP6QFlagsIN12QScriptValue12PropertyFlagEE@Base 4:14.12.0
 _ZN17StringScriptClass23queryAdditionalPropertyEPK15DataInformationRK13QScriptStringP6QFlagsIN12QScriptClass9QueryFlagEEPj@Base 4:14.12.0
 _ZN17StringScriptClassC1EP13QScriptEngineP17ScriptHandlerInfo@Base 4:14.12.0
 _ZN17StringScriptClassC2EP13QScriptEngineP17ScriptHandlerInfo@Base 4:14.12.0
 _ZN17StringScriptClassD0Ev@Base 4:14.12.0
 _ZN17StringScriptClassD1Ev@Base 4:14.12.0
 _ZN17StringScriptClassD2Ev@Base 4:14.12.0
 _ZN17Utf8CharValidatorD0Ev@Base 4:14.12.0
 _ZN17Utf8CharValidatorD1Ev@Base 4:14.12.0
 _ZN17Utf8CharValidatorD2Ev@Base 4:14.12.0
 _ZN18DefaultScriptClass11newIteratorERK12QScriptValue@Base 4:14.12.0
 _ZN18DefaultScriptClass11setDataTypeERK12QScriptValueP15DataInformation@Base 4:14.12.0
 _ZN18DefaultScriptClass11setPropertyER12QScriptValueRK13QScriptStringjRKS0_@Base 4:14.12.0
 _ZN18DefaultScriptClass13propertyFlagsERK12QScriptValueRK13QScriptStringj@Base 4:14.12.0
 _ZN18DefaultScriptClass13queryPropertyERK12QScriptValueRK13QScriptString6QFlagsIN12QScriptClass9QueryFlagEEPj@Base 4:14.12.0
 _ZN18DefaultScriptClass17toDataInformationERK12QScriptValue@Base 4:14.12.0
 _ZN18DefaultScriptClass22Default_proto_toStringEP14QScriptContextP13QScriptEngine@Base 4:14.12.0
 _ZN18DefaultScriptClass8propertyERK12QScriptValueRK13QScriptStringj@Base 4:14.12.0
 _ZN18DefaultScriptClassC1EP13QScriptEngineP17ScriptHandlerInfo@Base 4:14.12.0
 _ZN18DefaultScriptClassC2EP13QScriptEngineP17ScriptHandlerInfo@Base 4:14.12.0
 _ZN18DefaultScriptClassD0Ev@Base 4:14.12.0
 _ZN18DefaultScriptClassD1Ev@Base 4:14.12.0
 _ZN18DefaultScriptClassD2Ev@Base 4:14.12.0
 _ZN18Hexadecimal8Editor11qt_metacallEN11QMetaObject4CallEiPPv@Base 4:14.12.0
 _ZN18Hexadecimal8Editor11qt_metacastEPKc@Base 4:14.12.0
 _ZN18Hexadecimal8Editor16staticMetaObjectE@Base 4:14.12.0
 _ZN18Hexadecimal8Editor7setDataE12Hexadecimal8@Base 4:14.12.0
 _ZN18Hexadecimal8EditorC1EP7QWidget@Base 4:14.12.0
 _ZN18Hexadecimal8EditorC2EP7QWidget@Base 4:14.12.0
 _ZN18Hexadecimal8EditorD0Ev@Base 4:14.12.0
 _ZN18Hexadecimal8EditorD1Ev@Base 4:14.12.0
 _ZN18Hexadecimal8EditorD2Ev@Base 4:14.12.0
 _ZN18PointerScriptClass18additionalPropertyEPK15DataInformationRK13QScriptStringj@Base 4:14.12.0
 _ZN18PointerScriptClass21setAdditionalPropertyEP15DataInformationRK13QScriptStringjRK12QScriptValue@Base 4:14.12.0
 _ZN18PointerScriptClass23queryAdditionalPropertyEPK15DataInformationRK13QScriptStringP6QFlagsIN12QScriptClass9QueryFlagEEPj@Base 4:14.12.0
 _ZN18PointerScriptClassC1EP13QScriptEngineP17ScriptHandlerInfo@Base 4:14.12.0
 _ZN18PointerScriptClassC2EP13QScriptEngineP17ScriptHandlerInfo@Base 4:14.12.0
 _ZN18PointerScriptClassD0Ev@Base 4:14.12.0
 _ZN18PointerScriptClassD1Ev@Base 4:14.12.0
 _ZN18PointerScriptClassD2Ev@Base 4:14.12.0
 (optional=templinst)_ZN18PrimitiveArrayDataIL21PrimitiveDataTypeEnum0EE10childFlagsEiib@Base 4:14.12.0
 (optional=templinst)_ZN18PrimitiveArrayDataIL21PrimitiveDataTypeEnum0EE12setChildDataEj8QVariantPN6Okteta22AbstractByteArrayModelEiy@Base 4:14.12.0
 (optional=templinst)_ZN18PrimitiveArrayDataIL21PrimitiveDataTypeEnum0EE12writeOneItemEhiPN6Okteta22AbstractByteArrayModelEb@Base 4:14.12.0
 (optional=templinst)_ZN18PrimitiveArrayDataIL21PrimitiveDataTypeEnum0EE13activateIndexEj@Base 4:15.12.0
 (optional=templinst)_ZN18PrimitiveArrayDataIL21PrimitiveDataTypeEnum0EE13toScriptValueEjP13QScriptEngineP17ScriptHandlerInfo@Base 4:14.12.0
 (optional=templinst)_ZN18PrimitiveArrayDataIL21PrimitiveDataTypeEnum0EE19readDataNativeOrderEjPN6Okteta22AbstractByteArrayModelEi@Base 4:14.12.0
 (optional=templinst)_ZN18PrimitiveArrayDataIL21PrimitiveDataTypeEnum0EE22readDataNonNativeOrderEjPN6Okteta22AbstractByteArrayModelEi@Base 4:14.12.0
 (optional=templinst)_ZN18PrimitiveArrayDataIL21PrimitiveDataTypeEnum0EE23setNewParentForChildrenEv@Base 4:14.12.0
 (optional=templinst)_ZN18PrimitiveArrayDataIL21PrimitiveDataTypeEnum0EE6dataAtEjii@Base 4:14.12.0
 (optional=templinst)_ZN18PrimitiveArrayDataIL21PrimitiveDataTypeEnum0EE6sizeAtEj@Base 4:14.12.0
 (optional=templinst)_ZN18PrimitiveArrayDataIL21PrimitiveDataTypeEnum0EE7childAtEj@Base 4:14.12.0
 (optional=templinst)_ZN18PrimitiveArrayDataIL21PrimitiveDataTypeEnum0EE8readDataEPN6Okteta22AbstractByteArrayModelEiy@Base 4:14.12.0
 (optional=templinst)_ZN18PrimitiveArrayDataIL21PrimitiveDataTypeEnum0EE9setLengthEj@Base 4:14.12.0
 (optional=templinst)_ZN18PrimitiveArrayDataIL21PrimitiveDataTypeEnum0EEC1EjP24PrimitiveDataInformationP20ArrayDataInformation@Base 4:14.12.0
 (optional=templinst)_ZN18PrimitiveArrayDataIL21PrimitiveDataTypeEnum0EEC2EjP24PrimitiveDataInformationP20ArrayDataInformation@Base 4:14.12.0
 (optional=templinst)_ZN18PrimitiveArrayDataIL21PrimitiveDataTypeEnum0EED0Ev@Base 4:14.12.0
 (optional=templinst)_ZN18PrimitiveArrayDataIL21PrimitiveDataTypeEnum0EED1Ev@Base 4:14.12.0
 (optional=templinst)_ZN18PrimitiveArrayDataIL21PrimitiveDataTypeEnum0EED2Ev@Base 4:14.12.0
 (optional=templinst)_ZN18PrimitiveArrayDataIL21PrimitiveDataTypeEnum10EE10childFlagsEiib@Base 4:14.12.0
 (optional=templinst)_ZN18PrimitiveArrayDataIL21PrimitiveDataTypeEnum10EE12setChildDataEj8QVariantPN6Okteta22AbstractByteArrayModelEiy@Base 4:14.12.0
 (optional=templinst)_ZN18PrimitiveArrayDataIL21PrimitiveDataTypeEnum10EE12writeOneItemEyiPN6Okteta22AbstractByteArrayModelEb@Base 4:14.12.0
 (optional=templinst)_ZN18PrimitiveArrayDataIL21PrimitiveDataTypeEnum10EE13activateIndexEj@Base 4:15.12.0
 (optional=templinst)_ZN18PrimitiveArrayDataIL21PrimitiveDataTypeEnum10EE13toScriptValueEjP13QScriptEngineP17ScriptHandlerInfo@Base 4:14.12.0
 (optional=templinst)_ZN18PrimitiveArrayDataIL21PrimitiveDataTypeEnum10EE19readDataNativeOrderEjPN6Okteta22AbstractByteArrayModelEi@Base 4:14.12.0
 (optional=templinst)_ZN18PrimitiveArrayDataIL21PrimitiveDataTypeEnum10EE22readDataNonNativeOrderEjPN6Okteta22AbstractByteArrayModelEi@Base 4:14.12.0
 (optional=templinst)_ZN18PrimitiveArrayDataIL21PrimitiveDataTypeEnum10EE23setNewParentForChildrenEv@Base 4:14.12.0
 (optional=templinst)_ZN18PrimitiveArrayDataIL21PrimitiveDataTypeEnum10EE6dataAtEjii@Base 4:14.12.0
 (optional=templinst)_ZN18PrimitiveArrayDataIL21PrimitiveDataTypeEnum10EE6sizeAtEj@Base 4:14.12.0
 (optional=templinst)_ZN18PrimitiveArrayDataIL21PrimitiveDataTypeEnum10EE7childAtEj@Base 4:14.12.0
 (optional=templinst)_ZN18PrimitiveArrayDataIL21PrimitiveDataTypeEnum10EE8readDataEPN6Okteta22AbstractByteArrayModelEiy@Base 4:14.12.0
 (optional=templinst)_ZN18PrimitiveArrayDataIL21PrimitiveDataTypeEnum10EE9setLengthEj@Base 4:14.12.0
 (optional=templinst)_ZN18PrimitiveArrayDataIL21PrimitiveDataTypeEnum10EEC1EjP24PrimitiveDataInformationP20ArrayDataInformation@Base 4:14.12.0
 (optional=templinst)_ZN18PrimitiveArrayDataIL21PrimitiveDataTypeEnum10EEC2EjP24PrimitiveDataInformationP20ArrayDataInformation@Base 4:14.12.0
 (optional=templinst)_ZN18PrimitiveArrayDataIL21PrimitiveDataTypeEnum10EED0Ev@Base 4:14.12.0
 (optional=templinst)_ZN18PrimitiveArrayDataIL21PrimitiveDataTypeEnum10EED1Ev@Base 4:14.12.0
 (optional=templinst)_ZN18PrimitiveArrayDataIL21PrimitiveDataTypeEnum10EED2Ev@Base 4:14.12.0
 (optional=templinst)_ZN18PrimitiveArrayDataIL21PrimitiveDataTypeEnum11EE10childFlagsEiib@Base 4:14.12.0
 (optional=templinst)_ZN18PrimitiveArrayDataIL21PrimitiveDataTypeEnum11EE12setChildDataEj8QVariantPN6Okteta22AbstractByteArrayModelEiy@Base 4:14.12.0
 (optional=templinst)_ZN18PrimitiveArrayDataIL21PrimitiveDataTypeEnum11EE12writeOneItemExiPN6Okteta22AbstractByteArrayModelEb@Base 4:14.12.0
 (optional=templinst)_ZN18PrimitiveArrayDataIL21PrimitiveDataTypeEnum11EE13activateIndexEj@Base 4:15.12.0
 (optional=templinst)_ZN18PrimitiveArrayDataIL21PrimitiveDataTypeEnum11EE13toScriptValueEjP13QScriptEngineP17ScriptHandlerInfo@Base 4:14.12.0
 (optional=templinst)_ZN18PrimitiveArrayDataIL21PrimitiveDataTypeEnum11EE19readDataNativeOrderEjPN6Okteta22AbstractByteArrayModelEi@Base 4:14.12.0
 (optional=templinst)_ZN18PrimitiveArrayDataIL21PrimitiveDataTypeEnum11EE22readDataNonNativeOrderEjPN6Okteta22AbstractByteArrayModelEi@Base 4:14.12.0
 (optional=templinst)_ZN18PrimitiveArrayDataIL21PrimitiveDataTypeEnum11EE23setNewParentForChildrenEv@Base 4:14.12.0
 (optional=templinst)_ZN18PrimitiveArrayDataIL21PrimitiveDataTypeEnum11EE6dataAtEjii@Base 4:14.12.0
 (optional=templinst)_ZN18PrimitiveArrayDataIL21PrimitiveDataTypeEnum11EE6sizeAtEj@Base 4:14.12.0
 (optional=templinst)_ZN18PrimitiveArrayDataIL21PrimitiveDataTypeEnum11EE7childAtEj@Base 4:14.12.0
 (optional=templinst)_ZN18PrimitiveArrayDataIL21PrimitiveDataTypeEnum11EE8readDataEPN6Okteta22AbstractByteArrayModelEiy@Base 4:14.12.0
 (optional=templinst)_ZN18PrimitiveArrayDataIL21PrimitiveDataTypeEnum11EE9setLengthEj@Base 4:14.12.0
 (optional=templinst)_ZN18PrimitiveArrayDataIL21PrimitiveDataTypeEnum11EEC1EjP24PrimitiveDataInformationP20ArrayDataInformation@Base 4:14.12.0
 (optional=templinst)_ZN18PrimitiveArrayDataIL21PrimitiveDataTypeEnum11EEC2EjP24PrimitiveDataInformationP20ArrayDataInformation@Base 4:14.12.0
 (optional=templinst)_ZN18PrimitiveArrayDataIL21PrimitiveDataTypeEnum11EED0Ev@Base 4:14.12.0
 (optional=templinst)_ZN18PrimitiveArrayDataIL21PrimitiveDataTypeEnum11EED1Ev@Base 4:14.12.0
 (optional=templinst)_ZN18PrimitiveArrayDataIL21PrimitiveDataTypeEnum11EED2Ev@Base 4:14.12.0
 (optional=templinst)_ZN18PrimitiveArrayDataIL21PrimitiveDataTypeEnum12EE10childFlagsEiib@Base 4:14.12.0
 (optional=templinst)_ZN18PrimitiveArrayDataIL21PrimitiveDataTypeEnum12EE12setChildDataEj8QVariantPN6Okteta22AbstractByteArrayModelEiy@Base 4:14.12.0
 (optional=templinst)_ZN18PrimitiveArrayDataIL21PrimitiveDataTypeEnum12EE12writeOneItemEyiPN6Okteta22AbstractByteArrayModelEb@Base 4:14.12.0
 (optional=templinst)_ZN18PrimitiveArrayDataIL21PrimitiveDataTypeEnum12EE13activateIndexEj@Base 4:15.12.0
 (optional=templinst)_ZN18PrimitiveArrayDataIL21PrimitiveDataTypeEnum12EE13toScriptValueEjP13QScriptEngineP17ScriptHandlerInfo@Base 4:14.12.0
 (optional=templinst)_ZN18PrimitiveArrayDataIL21PrimitiveDataTypeEnum12EE19readDataNativeOrderEjPN6Okteta22AbstractByteArrayModelEi@Base 4:14.12.0
 (optional=templinst)_ZN18PrimitiveArrayDataIL21PrimitiveDataTypeEnum12EE22readDataNonNativeOrderEjPN6Okteta22AbstractByteArrayModelEi@Base 4:14.12.0
 (optional=templinst)_ZN18PrimitiveArrayDataIL21PrimitiveDataTypeEnum12EE23setNewParentForChildrenEv@Base 4:14.12.0
 (optional=templinst)_ZN18PrimitiveArrayDataIL21PrimitiveDataTypeEnum12EE6dataAtEjii@Base 4:14.12.0
 (optional=templinst)_ZN18PrimitiveArrayDataIL21PrimitiveDataTypeEnum12EE6sizeAtEj@Base 4:14.12.0
 (optional=templinst)_ZN18PrimitiveArrayDataIL21PrimitiveDataTypeEnum12EE7childAtEj@Base 4:14.12.0
 (optional=templinst)_ZN18PrimitiveArrayDataIL21PrimitiveDataTypeEnum12EE8readDataEPN6Okteta22AbstractByteArrayModelEiy@Base 4:14.12.0
 (optional=templinst)_ZN18PrimitiveArrayDataIL21PrimitiveDataTypeEnum12EE9setLengthEj@Base 4:14.12.0
 (optional=templinst)_ZN18PrimitiveArrayDataIL21PrimitiveDataTypeEnum12EEC1EjP24PrimitiveDataInformationP20ArrayDataInformation@Base 4:14.12.0
 (optional=templinst)_ZN18PrimitiveArrayDataIL21PrimitiveDataTypeEnum12EEC2EjP24PrimitiveDataInformationP20ArrayDataInformation@Base 4:14.12.0
 (optional=templinst)_ZN18PrimitiveArrayDataIL21PrimitiveDataTypeEnum12EED0Ev@Base 4:14.12.0
 (optional=templinst)_ZN18PrimitiveArrayDataIL21PrimitiveDataTypeEnum12EED1Ev@Base 4:14.12.0
 (optional=templinst)_ZN18PrimitiveArrayDataIL21PrimitiveDataTypeEnum12EED2Ev@Base 4:14.12.0
 (optional=templinst)_ZN18PrimitiveArrayDataIL21PrimitiveDataTypeEnum13EE10childFlagsEiib@Base 4:14.12.0
 (optional=templinst)_ZN18PrimitiveArrayDataIL21PrimitiveDataTypeEnum13EE12setChildDataEj8QVariantPN6Okteta22AbstractByteArrayModelEiy@Base 4:14.12.0
 (optional=templinst)_ZN18PrimitiveArrayDataIL21PrimitiveDataTypeEnum13EE12writeOneItemEfiPN6Okteta22AbstractByteArrayModelEb@Base 4:14.12.0
 (optional=templinst)_ZN18PrimitiveArrayDataIL21PrimitiveDataTypeEnum13EE13activateIndexEj@Base 4:15.12.0
 (optional=templinst)_ZN18PrimitiveArrayDataIL21PrimitiveDataTypeEnum13EE13toScriptValueEjP13QScriptEngineP17ScriptHandlerInfo@Base 4:14.12.0
 (optional=templinst)_ZN18PrimitiveArrayDataIL21PrimitiveDataTypeEnum13EE19readDataNativeOrderEjPN6Okteta22AbstractByteArrayModelEi@Base 4:14.12.0
 (optional=templinst)_ZN18PrimitiveArrayDataIL21PrimitiveDataTypeEnum13EE22readDataNonNativeOrderEjPN6Okteta22AbstractByteArrayModelEi@Base 4:14.12.0
 (optional=templinst)_ZN18PrimitiveArrayDataIL21PrimitiveDataTypeEnum13EE23setNewParentForChildrenEv@Base 4:14.12.0
 (optional=templinst)_ZN18PrimitiveArrayDataIL21PrimitiveDataTypeEnum13EE6dataAtEjii@Base 4:14.12.0
 (optional=templinst)_ZN18PrimitiveArrayDataIL21PrimitiveDataTypeEnum13EE6sizeAtEj@Base 4:14.12.0
 (optional=templinst)_ZN18PrimitiveArrayDataIL21PrimitiveDataTypeEnum13EE7childAtEj@Base 4:14.12.0
 (optional=templinst)_ZN18PrimitiveArrayDataIL21PrimitiveDataTypeEnum13EE8readDataEPN6Okteta22AbstractByteArrayModelEiy@Base 4:14.12.0
 (optional=templinst)_ZN18PrimitiveArrayDataIL21PrimitiveDataTypeEnum13EE9setLengthEj@Base 4:14.12.0
 (optional=templinst)_ZN18PrimitiveArrayDataIL21PrimitiveDataTypeEnum13EEC1EjP24PrimitiveDataInformationP20ArrayDataInformation@Base 4:14.12.0
 (optional=templinst)_ZN18PrimitiveArrayDataIL21PrimitiveDataTypeEnum13EEC2EjP24PrimitiveDataInformationP20ArrayDataInformation@Base 4:14.12.0
 (optional=templinst)_ZN18PrimitiveArrayDataIL21PrimitiveDataTypeEnum13EED0Ev@Base 4:14.12.0
 (optional=templinst)_ZN18PrimitiveArrayDataIL21PrimitiveDataTypeEnum13EED1Ev@Base 4:14.12.0
 (optional=templinst)_ZN18PrimitiveArrayDataIL21PrimitiveDataTypeEnum13EED2Ev@Base 4:14.12.0
 (optional=templinst)_ZN18PrimitiveArrayDataIL21PrimitiveDataTypeEnum14EE10childFlagsEiib@Base 4:14.12.0
 (optional=templinst)_ZN18PrimitiveArrayDataIL21PrimitiveDataTypeEnum14EE12setChildDataEj8QVariantPN6Okteta22AbstractByteArrayModelEiy@Base 4:14.12.0
 (optional=templinst)_ZN18PrimitiveArrayDataIL21PrimitiveDataTypeEnum14EE12writeOneItemEdiPN6Okteta22AbstractByteArrayModelEb@Base 4:14.12.0
 (optional=templinst)_ZN18PrimitiveArrayDataIL21PrimitiveDataTypeEnum14EE13activateIndexEj@Base 4:15.12.0
 (optional=templinst)_ZN18PrimitiveArrayDataIL21PrimitiveDataTypeEnum14EE13toScriptValueEjP13QScriptEngineP17ScriptHandlerInfo@Base 4:14.12.0
 (optional=templinst)_ZN18PrimitiveArrayDataIL21PrimitiveDataTypeEnum14EE19readDataNativeOrderEjPN6Okteta22AbstractByteArrayModelEi@Base 4:14.12.0
 (optional=templinst)_ZN18PrimitiveArrayDataIL21PrimitiveDataTypeEnum14EE22readDataNonNativeOrderEjPN6Okteta22AbstractByteArrayModelEi@Base 4:14.12.0
 (optional=templinst)_ZN18PrimitiveArrayDataIL21PrimitiveDataTypeEnum14EE23setNewParentForChildrenEv@Base 4:14.12.0
 (optional=templinst)_ZN18PrimitiveArrayDataIL21PrimitiveDataTypeEnum14EE6dataAtEjii@Base 4:14.12.0
 (optional=templinst)_ZN18PrimitiveArrayDataIL21PrimitiveDataTypeEnum14EE6sizeAtEj@Base 4:14.12.0
 (optional=templinst)_ZN18PrimitiveArrayDataIL21PrimitiveDataTypeEnum14EE7childAtEj@Base 4:14.12.0
 (optional=templinst)_ZN18PrimitiveArrayDataIL21PrimitiveDataTypeEnum14EE8readDataEPN6Okteta22AbstractByteArrayModelEiy@Base 4:14.12.0
 (optional=templinst)_ZN18PrimitiveArrayDataIL21PrimitiveDataTypeEnum14EE9setLengthEj@Base 4:14.12.0
 (optional=templinst)_ZN18PrimitiveArrayDataIL21PrimitiveDataTypeEnum14EEC1EjP24PrimitiveDataInformationP20ArrayDataInformation@Base 4:14.12.0
 (optional=templinst)_ZN18PrimitiveArrayDataIL21PrimitiveDataTypeEnum14EEC2EjP24PrimitiveDataInformationP20ArrayDataInformation@Base 4:14.12.0
 (optional=templinst)_ZN18PrimitiveArrayDataIL21PrimitiveDataTypeEnum14EED0Ev@Base 4:14.12.0
 (optional=templinst)_ZN18PrimitiveArrayDataIL21PrimitiveDataTypeEnum14EED1Ev@Base 4:14.12.0
 (optional=templinst)_ZN18PrimitiveArrayDataIL21PrimitiveDataTypeEnum14EED2Ev@Base 4:14.12.0
 (optional=templinst)_ZN18PrimitiveArrayDataIL21PrimitiveDataTypeEnum1EE10childFlagsEiib@Base 4:14.12.0
 (optional=templinst)_ZN18PrimitiveArrayDataIL21PrimitiveDataTypeEnum1EE12setChildDataEj8QVariantPN6Okteta22AbstractByteArrayModelEiy@Base 4:14.12.0
 (optional=templinst)_ZN18PrimitiveArrayDataIL21PrimitiveDataTypeEnum1EE12writeOneItemEaiPN6Okteta22AbstractByteArrayModelEb@Base 4:14.12.0
 (optional=templinst)_ZN18PrimitiveArrayDataIL21PrimitiveDataTypeEnum1EE13activateIndexEj@Base 4:15.12.0
 (optional=templinst)_ZN18PrimitiveArrayDataIL21PrimitiveDataTypeEnum1EE13toScriptValueEjP13QScriptEngineP17ScriptHandlerInfo@Base 4:14.12.0
 (optional=templinst)_ZN18PrimitiveArrayDataIL21PrimitiveDataTypeEnum1EE19readDataNativeOrderEjPN6Okteta22AbstractByteArrayModelEi@Base 4:14.12.0
 (optional=templinst)_ZN18PrimitiveArrayDataIL21PrimitiveDataTypeEnum1EE22readDataNonNativeOrderEjPN6Okteta22AbstractByteArrayModelEi@Base 4:14.12.0
 (optional=templinst)_ZN18PrimitiveArrayDataIL21PrimitiveDataTypeEnum1EE23setNewParentForChildrenEv@Base 4:14.12.0
 (optional=templinst)_ZN18PrimitiveArrayDataIL21PrimitiveDataTypeEnum1EE6dataAtEjii@Base 4:14.12.0
 (optional=templinst)_ZN18PrimitiveArrayDataIL21PrimitiveDataTypeEnum1EE6sizeAtEj@Base 4:14.12.0
 (optional=templinst)_ZN18PrimitiveArrayDataIL21PrimitiveDataTypeEnum1EE7childAtEj@Base 4:14.12.0
 (optional=templinst)_ZN18PrimitiveArrayDataIL21PrimitiveDataTypeEnum1EE8readDataEPN6Okteta22AbstractByteArrayModelEiy@Base 4:14.12.0
 (optional=templinst)_ZN18PrimitiveArrayDataIL21PrimitiveDataTypeEnum1EE9setLengthEj@Base 4:14.12.0
 (optional=templinst)_ZN18PrimitiveArrayDataIL21PrimitiveDataTypeEnum1EEC1EjP24PrimitiveDataInformationP20ArrayDataInformation@Base 4:14.12.0
 (optional=templinst)_ZN18PrimitiveArrayDataIL21PrimitiveDataTypeEnum1EEC2EjP24PrimitiveDataInformationP20ArrayDataInformation@Base 4:14.12.0
 (optional=templinst)_ZN18PrimitiveArrayDataIL21PrimitiveDataTypeEnum1EED0Ev@Base 4:14.12.0
 (optional=templinst)_ZN18PrimitiveArrayDataIL21PrimitiveDataTypeEnum1EED1Ev@Base 4:14.12.0
 (optional=templinst)_ZN18PrimitiveArrayDataIL21PrimitiveDataTypeEnum1EED2Ev@Base 4:14.12.0
 (optional=templinst)_ZN18PrimitiveArrayDataIL21PrimitiveDataTypeEnum2EE10childFlagsEiib@Base 4:14.12.0
 (optional=templinst)_ZN18PrimitiveArrayDataIL21PrimitiveDataTypeEnum2EE12setChildDataEj8QVariantPN6Okteta22AbstractByteArrayModelEiy@Base 4:14.12.0
 (optional=templinst)_ZN18PrimitiveArrayDataIL21PrimitiveDataTypeEnum2EE12writeOneItemEhiPN6Okteta22AbstractByteArrayModelEb@Base 4:14.12.0
 (optional=templinst)_ZN18PrimitiveArrayDataIL21PrimitiveDataTypeEnum2EE13activateIndexEj@Base 4:15.12.0
 (optional=templinst)_ZN18PrimitiveArrayDataIL21PrimitiveDataTypeEnum2EE13toScriptValueEjP13QScriptEngineP17ScriptHandlerInfo@Base 4:14.12.0
 (optional=templinst)_ZN18PrimitiveArrayDataIL21PrimitiveDataTypeEnum2EE19readDataNativeOrderEjPN6Okteta22AbstractByteArrayModelEi@Base 4:14.12.0
 (optional=templinst)_ZN18PrimitiveArrayDataIL21PrimitiveDataTypeEnum2EE22readDataNonNativeOrderEjPN6Okteta22AbstractByteArrayModelEi@Base 4:14.12.0
 (optional=templinst)_ZN18PrimitiveArrayDataIL21PrimitiveDataTypeEnum2EE23setNewParentForChildrenEv@Base 4:14.12.0
 (optional=templinst)_ZN18PrimitiveArrayDataIL21PrimitiveDataTypeEnum2EE6dataAtEjii@Base 4:14.12.0
 (optional=templinst)_ZN18PrimitiveArrayDataIL21PrimitiveDataTypeEnum2EE6sizeAtEj@Base 4:14.12.0
 (optional=templinst)_ZN18PrimitiveArrayDataIL21PrimitiveDataTypeEnum2EE7childAtEj@Base 4:14.12.0
 (optional=templinst)_ZN18PrimitiveArrayDataIL21PrimitiveDataTypeEnum2EE8readDataEPN6Okteta22AbstractByteArrayModelEiy@Base 4:14.12.0
 (optional=templinst)_ZN18PrimitiveArrayDataIL21PrimitiveDataTypeEnum2EE9setLengthEj@Base 4:14.12.0
 (optional=templinst)_ZN18PrimitiveArrayDataIL21PrimitiveDataTypeEnum2EEC1EjP24PrimitiveDataInformationP20ArrayDataInformation@Base 4:14.12.0
 (optional=templinst)_ZN18PrimitiveArrayDataIL21PrimitiveDataTypeEnum2EEC2EjP24PrimitiveDataInformationP20ArrayDataInformation@Base 4:14.12.0
 (optional=templinst)_ZN18PrimitiveArrayDataIL21PrimitiveDataTypeEnum2EED0Ev@Base 4:14.12.0
 (optional=templinst)_ZN18PrimitiveArrayDataIL21PrimitiveDataTypeEnum2EED1Ev@Base 4:14.12.0
 (optional=templinst)_ZN18PrimitiveArrayDataIL21PrimitiveDataTypeEnum2EED2Ev@Base 4:14.12.0
 (optional=templinst)_ZN18PrimitiveArrayDataIL21PrimitiveDataTypeEnum3EE10childFlagsEiib@Base 4:14.12.0
 (optional=templinst)_ZN18PrimitiveArrayDataIL21PrimitiveDataTypeEnum3EE12setChildDataEj8QVariantPN6Okteta22AbstractByteArrayModelEiy@Base 4:14.12.0
 (optional=templinst)_ZN18PrimitiveArrayDataIL21PrimitiveDataTypeEnum3EE12writeOneItemEhiPN6Okteta22AbstractByteArrayModelEb@Base 4:14.12.0
 (optional=templinst)_ZN18PrimitiveArrayDataIL21PrimitiveDataTypeEnum3EE13activateIndexEj@Base 4:15.12.0
 (optional=templinst)_ZN18PrimitiveArrayDataIL21PrimitiveDataTypeEnum3EE13toScriptValueEjP13QScriptEngineP17ScriptHandlerInfo@Base 4:14.12.0
 (optional=templinst)_ZN18PrimitiveArrayDataIL21PrimitiveDataTypeEnum3EE19readDataNativeOrderEjPN6Okteta22AbstractByteArrayModelEi@Base 4:14.12.0
 (optional=templinst)_ZN18PrimitiveArrayDataIL21PrimitiveDataTypeEnum3EE22readDataNonNativeOrderEjPN6Okteta22AbstractByteArrayModelEi@Base 4:14.12.0
 (optional=templinst)_ZN18PrimitiveArrayDataIL21PrimitiveDataTypeEnum3EE23setNewParentForChildrenEv@Base 4:14.12.0
 (optional=templinst)_ZN18PrimitiveArrayDataIL21PrimitiveDataTypeEnum3EE6dataAtEjii@Base 4:14.12.0
 (optional=templinst)_ZN18PrimitiveArrayDataIL21PrimitiveDataTypeEnum3EE6sizeAtEj@Base 4:14.12.0
 (optional=templinst)_ZN18PrimitiveArrayDataIL21PrimitiveDataTypeEnum3EE7childAtEj@Base 4:14.12.0
 (optional=templinst)_ZN18PrimitiveArrayDataIL21PrimitiveDataTypeEnum3EE8readDataEPN6Okteta22AbstractByteArrayModelEiy@Base 4:14.12.0
 (optional=templinst)_ZN18PrimitiveArrayDataIL21PrimitiveDataTypeEnum3EE9setLengthEj@Base 4:14.12.0
 (optional=templinst)_ZN18PrimitiveArrayDataIL21PrimitiveDataTypeEnum3EEC1EjP24PrimitiveDataInformationP20ArrayDataInformation@Base 4:14.12.0
 (optional=templinst)_ZN18PrimitiveArrayDataIL21PrimitiveDataTypeEnum3EEC2EjP24PrimitiveDataInformationP20ArrayDataInformation@Base 4:14.12.0
 (optional=templinst)_ZN18PrimitiveArrayDataIL21PrimitiveDataTypeEnum3EED0Ev@Base 4:14.12.0
 (optional=templinst)_ZN18PrimitiveArrayDataIL21PrimitiveDataTypeEnum3EED1Ev@Base 4:14.12.0
 (optional=templinst)_ZN18PrimitiveArrayDataIL21PrimitiveDataTypeEnum3EED2Ev@Base 4:14.12.0
 (optional=templinst)_ZN18PrimitiveArrayDataIL21PrimitiveDataTypeEnum4EE10childFlagsEiib@Base 4:14.12.0
 (optional=templinst)_ZN18PrimitiveArrayDataIL21PrimitiveDataTypeEnum4EE12setChildDataEj8QVariantPN6Okteta22AbstractByteArrayModelEiy@Base 4:14.12.0
 (optional=templinst)_ZN18PrimitiveArrayDataIL21PrimitiveDataTypeEnum4EE12writeOneItemEtiPN6Okteta22AbstractByteArrayModelEb@Base 4:14.12.0
 (optional=templinst)_ZN18PrimitiveArrayDataIL21PrimitiveDataTypeEnum4EE13activateIndexEj@Base 4:15.12.0
 (optional=templinst)_ZN18PrimitiveArrayDataIL21PrimitiveDataTypeEnum4EE13toScriptValueEjP13QScriptEngineP17ScriptHandlerInfo@Base 4:14.12.0
 (optional=templinst)_ZN18PrimitiveArrayDataIL21PrimitiveDataTypeEnum4EE19readDataNativeOrderEjPN6Okteta22AbstractByteArrayModelEi@Base 4:14.12.0
 (optional=templinst)_ZN18PrimitiveArrayDataIL21PrimitiveDataTypeEnum4EE22readDataNonNativeOrderEjPN6Okteta22AbstractByteArrayModelEi@Base 4:14.12.0
 (optional=templinst)_ZN18PrimitiveArrayDataIL21PrimitiveDataTypeEnum4EE23setNewParentForChildrenEv@Base 4:14.12.0
 (optional=templinst)_ZN18PrimitiveArrayDataIL21PrimitiveDataTypeEnum4EE6dataAtEjii@Base 4:14.12.0
 (optional=templinst)_ZN18PrimitiveArrayDataIL21PrimitiveDataTypeEnum4EE6sizeAtEj@Base 4:14.12.0
 (optional=templinst)_ZN18PrimitiveArrayDataIL21PrimitiveDataTypeEnum4EE7childAtEj@Base 4:14.12.0
 (optional=templinst)_ZN18PrimitiveArrayDataIL21PrimitiveDataTypeEnum4EE8readDataEPN6Okteta22AbstractByteArrayModelEiy@Base 4:14.12.0
 (optional=templinst)_ZN18PrimitiveArrayDataIL21PrimitiveDataTypeEnum4EE9setLengthEj@Base 4:14.12.0
 (optional=templinst)_ZN18PrimitiveArrayDataIL21PrimitiveDataTypeEnum4EEC1EjP24PrimitiveDataInformationP20ArrayDataInformation@Base 4:14.12.0
 (optional=templinst)_ZN18PrimitiveArrayDataIL21PrimitiveDataTypeEnum4EEC2EjP24PrimitiveDataInformationP20ArrayDataInformation@Base 4:14.12.0
 (optional=templinst)_ZN18PrimitiveArrayDataIL21PrimitiveDataTypeEnum4EED0Ev@Base 4:14.12.0
 (optional=templinst)_ZN18PrimitiveArrayDataIL21PrimitiveDataTypeEnum4EED1Ev@Base 4:14.12.0
 (optional=templinst)_ZN18PrimitiveArrayDataIL21PrimitiveDataTypeEnum4EED2Ev@Base 4:14.12.0
 (optional=templinst)_ZN18PrimitiveArrayDataIL21PrimitiveDataTypeEnum5EE10childFlagsEiib@Base 4:14.12.0
 (optional=templinst)_ZN18PrimitiveArrayDataIL21PrimitiveDataTypeEnum5EE12setChildDataEj8QVariantPN6Okteta22AbstractByteArrayModelEiy@Base 4:14.12.0
 (optional=templinst)_ZN18PrimitiveArrayDataIL21PrimitiveDataTypeEnum5EE12writeOneItemEsiPN6Okteta22AbstractByteArrayModelEb@Base 4:14.12.0
 (optional=templinst)_ZN18PrimitiveArrayDataIL21PrimitiveDataTypeEnum5EE13activateIndexEj@Base 4:15.12.0
 (optional=templinst)_ZN18PrimitiveArrayDataIL21PrimitiveDataTypeEnum5EE13toScriptValueEjP13QScriptEngineP17ScriptHandlerInfo@Base 4:14.12.0
 (optional=templinst)_ZN18PrimitiveArrayDataIL21PrimitiveDataTypeEnum5EE19readDataNativeOrderEjPN6Okteta22AbstractByteArrayModelEi@Base 4:14.12.0
 (optional=templinst)_ZN18PrimitiveArrayDataIL21PrimitiveDataTypeEnum5EE22readDataNonNativeOrderEjPN6Okteta22AbstractByteArrayModelEi@Base 4:14.12.0
 (optional=templinst)_ZN18PrimitiveArrayDataIL21PrimitiveDataTypeEnum5EE23setNewParentForChildrenEv@Base 4:14.12.0
 (optional=templinst)_ZN18PrimitiveArrayDataIL21PrimitiveDataTypeEnum5EE6dataAtEjii@Base 4:14.12.0
 (optional=templinst)_ZN18PrimitiveArrayDataIL21PrimitiveDataTypeEnum5EE6sizeAtEj@Base 4:14.12.0
 (optional=templinst)_ZN18PrimitiveArrayDataIL21PrimitiveDataTypeEnum5EE7childAtEj@Base 4:14.12.0
 (optional=templinst)_ZN18PrimitiveArrayDataIL21PrimitiveDataTypeEnum5EE8readDataEPN6Okteta22AbstractByteArrayModelEiy@Base 4:14.12.0
 (optional=templinst)_ZN18PrimitiveArrayDataIL21PrimitiveDataTypeEnum5EE9setLengthEj@Base 4:14.12.0
 (optional=templinst)_ZN18PrimitiveArrayDataIL21PrimitiveDataTypeEnum5EEC1EjP24PrimitiveDataInformationP20ArrayDataInformation@Base 4:14.12.0
 (optional=templinst)_ZN18PrimitiveArrayDataIL21PrimitiveDataTypeEnum5EEC2EjP24PrimitiveDataInformationP20ArrayDataInformation@Base 4:14.12.0
 (optional=templinst)_ZN18PrimitiveArrayDataIL21PrimitiveDataTypeEnum5EED0Ev@Base 4:14.12.0
 (optional=templinst)_ZN18PrimitiveArrayDataIL21PrimitiveDataTypeEnum5EED1Ev@Base 4:14.12.0
 (optional=templinst)_ZN18PrimitiveArrayDataIL21PrimitiveDataTypeEnum5EED2Ev@Base 4:14.12.0
 (optional=templinst)_ZN18PrimitiveArrayDataIL21PrimitiveDataTypeEnum6EE10childFlagsEiib@Base 4:14.12.0
 (optional=templinst)_ZN18PrimitiveArrayDataIL21PrimitiveDataTypeEnum6EE12setChildDataEj8QVariantPN6Okteta22AbstractByteArrayModelEiy@Base 4:14.12.0
 (optional=templinst)_ZN18PrimitiveArrayDataIL21PrimitiveDataTypeEnum6EE12writeOneItemEtiPN6Okteta22AbstractByteArrayModelEb@Base 4:14.12.0
 (optional=templinst)_ZN18PrimitiveArrayDataIL21PrimitiveDataTypeEnum6EE13activateIndexEj@Base 4:15.12.0
 (optional=templinst)_ZN18PrimitiveArrayDataIL21PrimitiveDataTypeEnum6EE13toScriptValueEjP13QScriptEngineP17ScriptHandlerInfo@Base 4:14.12.0
 (optional=templinst)_ZN18PrimitiveArrayDataIL21PrimitiveDataTypeEnum6EE19readDataNativeOrderEjPN6Okteta22AbstractByteArrayModelEi@Base 4:14.12.0
 (optional=templinst)_ZN18PrimitiveArrayDataIL21PrimitiveDataTypeEnum6EE22readDataNonNativeOrderEjPN6Okteta22AbstractByteArrayModelEi@Base 4:14.12.0
 (optional=templinst)_ZN18PrimitiveArrayDataIL21PrimitiveDataTypeEnum6EE23setNewParentForChildrenEv@Base 4:14.12.0
 (optional=templinst)_ZN18PrimitiveArrayDataIL21PrimitiveDataTypeEnum6EE6dataAtEjii@Base 4:14.12.0
 (optional=templinst)_ZN18PrimitiveArrayDataIL21PrimitiveDataTypeEnum6EE6sizeAtEj@Base 4:14.12.0
 (optional=templinst)_ZN18PrimitiveArrayDataIL21PrimitiveDataTypeEnum6EE7childAtEj@Base 4:14.12.0
 (optional=templinst)_ZN18PrimitiveArrayDataIL21PrimitiveDataTypeEnum6EE8readDataEPN6Okteta22AbstractByteArrayModelEiy@Base 4:14.12.0
 (optional=templinst)_ZN18PrimitiveArrayDataIL21PrimitiveDataTypeEnum6EE9setLengthEj@Base 4:14.12.0
 (optional=templinst)_ZN18PrimitiveArrayDataIL21PrimitiveDataTypeEnum6EEC1EjP24PrimitiveDataInformationP20ArrayDataInformation@Base 4:14.12.0
 (optional=templinst)_ZN18PrimitiveArrayDataIL21PrimitiveDataTypeEnum6EEC2EjP24PrimitiveDataInformationP20ArrayDataInformation@Base 4:14.12.0
 (optional=templinst)_ZN18PrimitiveArrayDataIL21PrimitiveDataTypeEnum6EED0Ev@Base 4:14.12.0
 (optional=templinst)_ZN18PrimitiveArrayDataIL21PrimitiveDataTypeEnum6EED1Ev@Base 4:14.12.0
 (optional=templinst)_ZN18PrimitiveArrayDataIL21PrimitiveDataTypeEnum6EED2Ev@Base 4:14.12.0
 (optional=templinst)_ZN18PrimitiveArrayDataIL21PrimitiveDataTypeEnum7EE10childFlagsEiib@Base 4:14.12.0
 (optional=templinst)_ZN18PrimitiveArrayDataIL21PrimitiveDataTypeEnum7EE12setChildDataEj8QVariantPN6Okteta22AbstractByteArrayModelEiy@Base 4:14.12.0
 (optional=templinst)_ZN18PrimitiveArrayDataIL21PrimitiveDataTypeEnum7EE12writeOneItemEjiPN6Okteta22AbstractByteArrayModelEb@Base 4:14.12.0
 (optional=templinst)_ZN18PrimitiveArrayDataIL21PrimitiveDataTypeEnum7EE13activateIndexEj@Base 4:15.12.0
 (optional=templinst)_ZN18PrimitiveArrayDataIL21PrimitiveDataTypeEnum7EE13toScriptValueEjP13QScriptEngineP17ScriptHandlerInfo@Base 4:14.12.0
 (optional=templinst)_ZN18PrimitiveArrayDataIL21PrimitiveDataTypeEnum7EE19readDataNativeOrderEjPN6Okteta22AbstractByteArrayModelEi@Base 4:14.12.0
 (optional=templinst)_ZN18PrimitiveArrayDataIL21PrimitiveDataTypeEnum7EE22readDataNonNativeOrderEjPN6Okteta22AbstractByteArrayModelEi@Base 4:14.12.0
 (optional=templinst)_ZN18PrimitiveArrayDataIL21PrimitiveDataTypeEnum7EE23setNewParentForChildrenEv@Base 4:14.12.0
 (optional=templinst)_ZN18PrimitiveArrayDataIL21PrimitiveDataTypeEnum7EE6dataAtEjii@Base 4:14.12.0
 (optional=templinst)_ZN18PrimitiveArrayDataIL21PrimitiveDataTypeEnum7EE6sizeAtEj@Base 4:14.12.0
 (optional=templinst)_ZN18PrimitiveArrayDataIL21PrimitiveDataTypeEnum7EE7childAtEj@Base 4:14.12.0
 (optional=templinst)_ZN18PrimitiveArrayDataIL21PrimitiveDataTypeEnum7EE8readDataEPN6Okteta22AbstractByteArrayModelEiy@Base 4:14.12.0
 (optional=templinst)_ZN18PrimitiveArrayDataIL21PrimitiveDataTypeEnum7EE9setLengthEj@Base 4:14.12.0
 (optional=templinst)_ZN18PrimitiveArrayDataIL21PrimitiveDataTypeEnum7EEC1EjP24PrimitiveDataInformationP20ArrayDataInformation@Base 4:14.12.0
 (optional=templinst)_ZN18PrimitiveArrayDataIL21PrimitiveDataTypeEnum7EEC2EjP24PrimitiveDataInformationP20ArrayDataInformation@Base 4:14.12.0
 (optional=templinst)_ZN18PrimitiveArrayDataIL21PrimitiveDataTypeEnum7EED0Ev@Base 4:14.12.0
 (optional=templinst)_ZN18PrimitiveArrayDataIL21PrimitiveDataTypeEnum7EED1Ev@Base 4:14.12.0
 (optional=templinst)_ZN18PrimitiveArrayDataIL21PrimitiveDataTypeEnum7EED2Ev@Base 4:14.12.0
 (optional=templinst)_ZN18PrimitiveArrayDataIL21PrimitiveDataTypeEnum8EE10childFlagsEiib@Base 4:14.12.0
 (optional=templinst)_ZN18PrimitiveArrayDataIL21PrimitiveDataTypeEnum8EE12setChildDataEj8QVariantPN6Okteta22AbstractByteArrayModelEiy@Base 4:14.12.0
 (optional=templinst)_ZN18PrimitiveArrayDataIL21PrimitiveDataTypeEnum8EE12writeOneItemEiiPN6Okteta22AbstractByteArrayModelEb@Base 4:14.12.0
 (optional=templinst)_ZN18PrimitiveArrayDataIL21PrimitiveDataTypeEnum8EE13activateIndexEj@Base 4:15.12.0
 (optional=templinst)_ZN18PrimitiveArrayDataIL21PrimitiveDataTypeEnum8EE13toScriptValueEjP13QScriptEngineP17ScriptHandlerInfo@Base 4:14.12.0
 (optional=templinst)_ZN18PrimitiveArrayDataIL21PrimitiveDataTypeEnum8EE19readDataNativeOrderEjPN6Okteta22AbstractByteArrayModelEi@Base 4:14.12.0
 (optional=templinst)_ZN18PrimitiveArrayDataIL21PrimitiveDataTypeEnum8EE22readDataNonNativeOrderEjPN6Okteta22AbstractByteArrayModelEi@Base 4:14.12.0
 (optional=templinst)_ZN18PrimitiveArrayDataIL21PrimitiveDataTypeEnum8EE23setNewParentForChildrenEv@Base 4:14.12.0
 (optional=templinst)_ZN18PrimitiveArrayDataIL21PrimitiveDataTypeEnum8EE6dataAtEjii@Base 4:14.12.0
 (optional=templinst)_ZN18PrimitiveArrayDataIL21PrimitiveDataTypeEnum8EE6sizeAtEj@Base 4:14.12.0
 (optional=templinst)_ZN18PrimitiveArrayDataIL21PrimitiveDataTypeEnum8EE7childAtEj@Base 4:14.12.0
 (optional=templinst)_ZN18PrimitiveArrayDataIL21PrimitiveDataTypeEnum8EE8readDataEPN6Okteta22AbstractByteArrayModelEiy@Base 4:14.12.0
 (optional=templinst)_ZN18PrimitiveArrayDataIL21PrimitiveDataTypeEnum8EE9setLengthEj@Base 4:14.12.0
 (optional=templinst)_ZN18PrimitiveArrayDataIL21PrimitiveDataTypeEnum8EEC1EjP24PrimitiveDataInformationP20ArrayDataInformation@Base 4:14.12.0
 (optional=templinst)_ZN18PrimitiveArrayDataIL21PrimitiveDataTypeEnum8EEC2EjP24PrimitiveDataInformationP20ArrayDataInformation@Base 4:14.12.0
 (optional=templinst)_ZN18PrimitiveArrayDataIL21PrimitiveDataTypeEnum8EED0Ev@Base 4:14.12.0
 (optional=templinst)_ZN18PrimitiveArrayDataIL21PrimitiveDataTypeEnum8EED1Ev@Base 4:14.12.0
 (optional=templinst)_ZN18PrimitiveArrayDataIL21PrimitiveDataTypeEnum8EED2Ev@Base 4:14.12.0
 (optional=templinst)_ZN18PrimitiveArrayDataIL21PrimitiveDataTypeEnum9EE10childFlagsEiib@Base 4:14.12.0
 (optional=templinst)_ZN18PrimitiveArrayDataIL21PrimitiveDataTypeEnum9EE12setChildDataEj8QVariantPN6Okteta22AbstractByteArrayModelEiy@Base 4:14.12.0
 (optional=templinst)_ZN18PrimitiveArrayDataIL21PrimitiveDataTypeEnum9EE12writeOneItemEjiPN6Okteta22AbstractByteArrayModelEb@Base 4:14.12.0
 (optional=templinst)_ZN18PrimitiveArrayDataIL21PrimitiveDataTypeEnum9EE13activateIndexEj@Base 4:15.12.0
 (optional=templinst)_ZN18PrimitiveArrayDataIL21PrimitiveDataTypeEnum9EE13toScriptValueEjP13QScriptEngineP17ScriptHandlerInfo@Base 4:14.12.0
 (optional=templinst)_ZN18PrimitiveArrayDataIL21PrimitiveDataTypeEnum9EE19readDataNativeOrderEjPN6Okteta22AbstractByteArrayModelEi@Base 4:14.12.0
 (optional=templinst)_ZN18PrimitiveArrayDataIL21PrimitiveDataTypeEnum9EE22readDataNonNativeOrderEjPN6Okteta22AbstractByteArrayModelEi@Base 4:14.12.0
 (optional=templinst)_ZN18PrimitiveArrayDataIL21PrimitiveDataTypeEnum9EE23setNewParentForChildrenEv@Base 4:14.12.0
 (optional=templinst)_ZN18PrimitiveArrayDataIL21PrimitiveDataTypeEnum9EE6dataAtEjii@Base 4:14.12.0
 (optional=templinst)_ZN18PrimitiveArrayDataIL21PrimitiveDataTypeEnum9EE6sizeAtEj@Base 4:14.12.0
 (optional=templinst)_ZN18PrimitiveArrayDataIL21PrimitiveDataTypeEnum9EE7childAtEj@Base 4:14.12.0
 (optional=templinst)_ZN18PrimitiveArrayDataIL21PrimitiveDataTypeEnum9EE8readDataEPN6Okteta22AbstractByteArrayModelEiy@Base 4:14.12.0
 (optional=templinst)_ZN18PrimitiveArrayDataIL21PrimitiveDataTypeEnum9EE9setLengthEj@Base 4:14.12.0
 (optional=templinst)_ZN18PrimitiveArrayDataIL21PrimitiveDataTypeEnum9EEC1EjP24PrimitiveDataInformationP20ArrayDataInformation@Base 4:14.12.0
 (optional=templinst)_ZN18PrimitiveArrayDataIL21PrimitiveDataTypeEnum9EEC2EjP24PrimitiveDataInformationP20ArrayDataInformation@Base 4:14.12.0
 (optional=templinst)_ZN18PrimitiveArrayDataIL21PrimitiveDataTypeEnum9EED0Ev@Base 4:14.12.0
 (optional=templinst)_ZN18PrimitiveArrayDataIL21PrimitiveDataTypeEnum9EED1Ev@Base 4:14.12.0
 (optional=templinst)_ZN18PrimitiveArrayDataIL21PrimitiveDataTypeEnum9EED2Ev@Base 4:14.12.0
 (optional=templinst)_ZN18QSharedDataPointerI14EnumDefinitionE13detach_helperEv@Base 4:14.12.0
 _ZN19BitfieldScriptClass18additionalPropertyEPK15DataInformationRK13QScriptStringj@Base 4:14.12.0
 _ZN19BitfieldScriptClass21setAdditionalPropertyEP15DataInformationRK13QScriptStringjRK12QScriptValue@Base 4:14.12.0
 _ZN19BitfieldScriptClass23queryAdditionalPropertyEPK15DataInformationRK13QScriptStringP6QFlagsIN12QScriptClass9QueryFlagEEPj@Base 4:14.12.0
 _ZN19BitfieldScriptClassC1EP13QScriptEngineP17ScriptHandlerInfo@Base 4:14.12.0
 _ZN19BitfieldScriptClassC2EP13QScriptEngineP17ScriptHandlerInfo@Base 4:14.12.0
 _ZN19BitfieldScriptClassD0Ev@Base 4:14.12.0
 _ZN19BitfieldScriptClassD1Ev@Base 4:14.12.0
 _ZN19BitfieldScriptClassD2Ev@Base 4:14.12.0
 _ZN19DataInformationBase10asTopLevelEv@Base 4:14.12.0
 _ZN19DataInformationBaseC1Ev@Base 4:14.12.0
 _ZN19DataInformationBaseC2Ev@Base 4:14.12.0
 _ZN19DataInformationBaseD0Ev@Base 4:14.12.0
 _ZN19DataInformationBaseD1Ev@Base 4:14.12.0
 _ZN19DataInformationBaseD2Ev@Base 4:14.12.0
 _ZN19EnumDataInformationC1ERK7QStringP24PrimitiveDataInformation18QSharedDataPointerI14EnumDefinitionEP15DataInformation@Base 4:14.12.0
 _ZN19EnumDataInformationC2ERK7QStringP24PrimitiveDataInformation18QSharedDataPointerI14EnumDefinitionEP15DataInformation@Base 4:14.12.0
 _ZN19EnumDataInformationD0Ev@Base 4:14.12.0
 _ZN19EnumDataInformationD1Ev@Base 4:14.12.0
 _ZN19EnumDataInformationD2Ev@Base 4:14.12.0
 _ZN19FlagDataInformationC1ERK7QStringP24PrimitiveDataInformation18QSharedDataPointerI14EnumDefinitionEP15DataInformation@Base 4:14.12.0
 _ZN19FlagDataInformationC2ERK7QStringP24PrimitiveDataInformation18QSharedDataPointerI14EnumDefinitionEP15DataInformation@Base 4:14.12.0
 _ZN19FlagDataInformationD0Ev@Base 4:14.12.0
 _ZN19FlagDataInformationD1Ev@Base 4:14.12.0
 _ZN19FlagDataInformationD2Ev@Base 4:14.12.0
 _ZN19SafeReferenceHolder13invalidateAllEP15DataInformation@Base 4:14.12.0
 _ZN19SafeReferenceHolder8instanceE@Base 4:14.12.0
 _ZN19SafeReferenceHolderC1Ev@Base 4:14.12.0
 _ZN19SafeReferenceHolderC2Ev@Base 4:14.12.0
 _ZN19SafeReferenceHolderD1Ev@Base 4:14.12.0
 _ZN19SafeReferenceHolderD2Ev@Base 4:14.12.0
 _ZN20AbstractValue8Editor11qt_metacallEN11QMetaObject4CallEiPPv@Base 4:14.12.0
 _ZN20AbstractValue8Editor11qt_metacastEPKc@Base 4:14.12.0
 _ZN20AbstractValue8Editor16staticMetaObjectE@Base 4:14.12.0
 _ZN20AbstractValue8EditorC1EN6Okteta11ValueCodingEP7QWidget@Base 4:14.12.0
 _ZN20AbstractValue8EditorC2EN6Okteta11ValueCodingEP7QWidget@Base 4:14.12.0
 _ZN20AbstractValue8EditorD0Ev@Base 4:14.12.0
 _ZN20AbstractValue8EditorD1Ev@Base 4:14.12.0
 _ZN20AbstractValue8EditorD2Ev@Base 4:14.12.0
 _ZN20ArrayDataInformation12setArrayTypeEP15DataInformation@Base 4:14.12.0
 _ZN20ArrayDataInformation12setChildDataEjRK8QVariantPN6Okteta22AbstractByteArrayModelEiyh@Base 4:14.12.0
 _ZN20ArrayDataInformation14setArrayLengthEj@Base 4:14.12.0
 _ZN20ArrayDataInformation7setDataERK8QVariantPN6Okteta22AbstractByteArrayModelEiyh@Base 4:14.12.0
 _ZN20ArrayDataInformation8readDataEPN6Okteta22AbstractByteArrayModelEiyPh@Base 4:14.12.0
 _ZN20ArrayDataInformationC1ERK7QStringjP15DataInformationS4_RK12QScriptValue@Base 4:14.12.0
 _ZN20ArrayDataInformationC1ERKS_@Base 4:14.12.0
 _ZN20ArrayDataInformationC2ERK7QStringjP15DataInformationS4_RK12QScriptValue@Base 4:14.12.0
 _ZN20ArrayDataInformationC2ERKS_@Base 4:14.12.0
 _ZN20ArrayDataInformationD0Ev@Base 4:14.12.0
 _ZN20ArrayDataInformationD1Ev@Base 4:14.12.0
 _ZN20ArrayDataInformationD2Ev@Base 4:14.12.0
 _ZN20DummyDataInformation13toScriptValueEP13QScriptEngineP17ScriptHandlerInfo@Base 4:14.12.0
 _ZN20DummyDataInformation7setDataERK8QVariantPN6Okteta22AbstractByteArrayModelEiyh@Base 4:14.12.0
 _ZN20DummyDataInformation8readDataEPN6Okteta22AbstractByteArrayModelEiyPh@Base 4:14.12.0
 _ZN20DummyDataInformationC1EP19DataInformationBaseRK7QString@Base 4:14.12.0
 _ZN20DummyDataInformationC2EP19DataInformationBaseRK7QString@Base 4:14.12.0
 _ZN20DummyDataInformationD0Ev@Base 4:14.12.0
 _ZN20DummyDataInformationD1Ev@Base 4:14.12.0
 _ZN20DummyDataInformationD2Ev@Base 4:14.12.0
 _ZN20PrimitiveScriptClass18additionalPropertyEPK15DataInformationRK13QScriptStringj@Base 4:14.12.0
 _ZN20PrimitiveScriptClass21setAdditionalPropertyEP15DataInformationRK13QScriptStringjRK12QScriptValue@Base 4:14.12.0
 _ZN20PrimitiveScriptClass23additionalPropertyFlagsEPK15DataInformationRK13QScriptStringjP6QFlagsIN12QScriptValue12PropertyFlagEE@Base 4:14.12.0
 _ZN20PrimitiveScriptClass23queryAdditionalPropertyEPK15DataInformationRK13QScriptStringP6QFlagsIN12QScriptClass9QueryFlagEEPj@Base 4:14.12.0
 _ZN20PrimitiveScriptClass24Primitive_proto_toStringEP14QScriptContextP13QScriptEngine@Base 4:14.12.0
 _ZN20PrimitiveScriptClassC1EP13QScriptEngineP17ScriptHandlerInfo@Base 4:14.12.0
 _ZN20PrimitiveScriptClassC2EP13QScriptEngineP17ScriptHandlerInfo@Base 4:14.12.0
 _ZN20PrimitiveScriptClassD0Ev@Base 4:14.12.0
 _ZN20PrimitiveScriptClassD1Ev@Base 4:14.12.0
 _ZN20PrimitiveScriptClassD2Ev@Base 4:14.12.0
 _ZN20ScriptValueConverter10toBitfieldERK12QScriptValueRK10ParserInfo@Base 4:14.12.0
 _ZN20ScriptValueConverter11toPrimitiveERK12QScriptValueRK10ParserInfo@Base 4:14.12.0
 _ZN20ScriptValueConverter13convertValuesERK12QScriptValueP12ScriptLoggerP15DataInformation@Base 4:14.12.0
 _ZN20ScriptValueConverter13toTaggedUnionERK12QScriptValueRK10ParserInfo@Base 4:14.12.0
 _ZN20ScriptValueConverter17toDataInformationERK12QScriptValueRK10ParserInfo@Base 4:14.12.0
 _ZN20ScriptValueConverter25ScriptValueChildrenParser4nextEv@Base 4:14.12.0
 _ZN20ScriptValueConverter25ScriptValueChildrenParser7hasNextEv@Base 4:14.12.0
 _ZN20ScriptValueConverter25ScriptValueChildrenParser9setParentEP15DataInformation@Base 4:14.12.0
 _ZN20ScriptValueConverter25ScriptValueChildrenParserC1ERK10ParserInfoRK12QScriptValue@Base 4:14.12.0
 _ZN20ScriptValueConverter25ScriptValueChildrenParserC2ERK10ParserInfoRK12QScriptValue@Base 4:14.12.0
 _ZN20ScriptValueConverter25ScriptValueChildrenParserD0Ev@Base 4:14.12.0
 _ZN20ScriptValueConverter25ScriptValueChildrenParserD1Ev@Base 4:14.12.0
 _ZN20ScriptValueConverter25ScriptValueChildrenParserD2Ev@Base 4:14.12.0
 _ZN20ScriptValueConverter6toEnumERK12QScriptValuebRK10ParserInfo@Base 4:14.12.0
 _ZN20ScriptValueConverter7convertERK12QScriptValueRK7QStringP12ScriptLoggerP15DataInformation@Base 4:14.12.0
 _ZN20ScriptValueConverter7toArrayERK12QScriptValueRK10ParserInfo@Base 4:14.12.0
 _ZN20ScriptValueConverter7toUnionERK12QScriptValueRK10ParserInfo@Base 4:14.12.0
 _ZN20ScriptValueConverter8toStringERK12QScriptValueRK10ParserInfo@Base 4:14.12.0
 _ZN20ScriptValueConverter8toStructERK12QScriptValueRK10ParserInfo@Base 4:14.12.0
 _ZN20ScriptValueConverter9toPointerERK12QScriptValueRK10ParserInfo@Base 4:14.12.0
 _ZN20UnionDataInformation8readDataEPN6Okteta22AbstractByteArrayModelEiyPh@Base 4:14.12.0
 _ZN20UnionDataInformationC1ERK7QStringRK7QVectorIP15DataInformationES5_@Base 4:14.12.0
 _ZN20UnionDataInformationC2ERK7QStringRK7QVectorIP15DataInformationES5_@Base 4:14.12.0
 _ZN20UnionDataInformationD0Ev@Base 4:14.12.0
 _ZN20UnionDataInformationD1Ev@Base 4:14.12.0
 _ZN20UnionDataInformationD2Ev@Base 4:14.12.0
 _ZN21StringDataInformation11setEncodingENS_10StringTypeE@Base 4:14.12.0
 _ZN21StringDataInformation12setChildDataEjRK8QVariantPN6Okteta22AbstractByteArrayModelEiyh@Base 4:14.12.0
 _ZN21StringDataInformation20unsetTerminationModeEN10StringData15TerminationModeE@Base 4:14.12.0
 _ZN21StringDataInformation7setDataERK8QVariantPN6Okteta22AbstractByteArrayModelEiyh@Base 4:14.12.0
 _ZN21StringDataInformation8readDataEPN6Okteta22AbstractByteArrayModelEiyPh@Base 4:14.12.0
 _ZN21StringDataInformationC1ERK7QStringNS_10StringTypeEP19DataInformationBase@Base 4:14.12.0
 _ZN21StringDataInformationC1ERKS_@Base 4:14.12.0
 _ZN21StringDataInformationC2ERK7QStringNS_10StringTypeEP19DataInformationBase@Base 4:14.12.0
 _ZN21StringDataInformationC2ERKS_@Base 4:14.12.0
 _ZN21StringDataInformationD0Ev@Base 4:14.12.0
 _ZN21StringDataInformationD1Ev@Base 4:14.12.0
 _ZN21StringDataInformationD2Ev@Base 4:14.12.0
 _ZN22DataInformationFactory10newPointerERK17PointerParsedData@Base 4:14.12.0
 _ZN22DataInformationFactory11newBitfieldERK18BitfieldParsedData@Base 4:14.12.0
 _ZN22DataInformationFactory12newPrimitiveERK19PrimitiveParsedData@Base 4:14.12.0
 _ZN22DataInformationFactory14newTaggedUnionERK21TaggedUnionParsedData@Base 4:14.12.0
 _ZN22DataInformationFactory20commonInitializationEP15DataInformationRK16CommonParsedData@Base 4:14.12.0
 _ZN22DataInformationFactory7newEnumERK14EnumParsedData@Base 4:14.12.0
 _ZN22DataInformationFactory8newArrayERK15ArrayParsedData@Base 4:14.12.0
 _ZN22DataInformationFactory8newFlagsERK14EnumParsedData@Base 4:14.12.0
 _ZN22DataInformationFactory8newUnionERK23StructOrUnionParsedData@Base 4:14.12.0
 _ZN22DataInformationFactory9newStringERK16StringParsedData@Base 4:14.12.0
 _ZN22DataInformationFactory9newStructERK23StructOrUnionParsedData@Base 4:14.12.0
 _ZN22PointerDataInformation14setPointerTypeEP15DataInformation@Base 4:14.12.0
 _ZN22PointerDataInformation15delayedReadDataEPN6Okteta22AbstractByteArrayModelEi@Base 4:14.12.0
 _ZN22PointerDataInformation8readDataEPN6Okteta22AbstractByteArrayModelEiyPh@Base 4:14.12.0
 _ZN22PointerDataInformationC1E7QStringP15DataInformationP24PrimitiveDataInformationS2_@Base 4:14.12.0
 _ZN22PointerDataInformationC1ERKS_@Base 4:14.12.0
 _ZN22PointerDataInformationC2E7QStringP15DataInformationP24PrimitiveDataInformationS2_@Base 4:14.12.0
 _ZN22PointerDataInformationC2ERKS_@Base 4:14.12.0
 _ZN22PointerDataInformationD0Ev@Base 4:14.12.0
 _ZN22PointerDataInformationD1Ev@Base 4:14.12.0
 _ZN22PointerDataInformationD2Ev@Base 4:14.12.0
 _ZN22StructUnionScriptClass18additionalPropertyEPK15DataInformationRK13QScriptStringj@Base 4:14.12.0
 _ZN22StructUnionScriptClass21setAdditionalPropertyEP15DataInformationRK13QScriptStringjRK12QScriptValue@Base 4:14.12.0
 _ZN22StructUnionScriptClass23StructUnion_proto_childEP14QScriptContextP13QScriptEngine@Base 4:14.12.0
 _ZN22StructUnionScriptClass23additionalPropertyFlagsEPK15DataInformationRK13QScriptStringjP6QFlagsIN12QScriptValue12PropertyFlagEE@Base 4:14.12.0
 _ZN22StructUnionScriptClass23queryAdditionalPropertyEPK15DataInformationRK13QScriptStringP6QFlagsIN12QScriptClass9QueryFlagEEPj@Base 4:14.12.0
 _ZN22StructUnionScriptClass26StructUnion_proto_toStringEP14QScriptContextP13QScriptEngine@Base 4:14.12.0
 _ZN22StructUnionScriptClass29StructUnion_proto_setChildrenEP14QScriptContextP13QScriptEngine@Base 4:14.12.0
 _ZN22StructUnionScriptClassC1EP13QScriptEngineP17ScriptHandlerInfo@Base 4:14.12.0
 _ZN22StructUnionScriptClassC2EP13QScriptEngineP17ScriptHandlerInfo@Base 4:14.12.0
 _ZN22StructUnionScriptClassD0Ev@Base 4:14.12.0
 _ZN22StructUnionScriptClassD1Ev@Base 4:14.12.0
 _ZN22StructUnionScriptClassD2Ev@Base 4:14.12.0
 _ZN23AbstractStructureParserC1ERK7QStringS2_@Base 4:14.12.0
 _ZN23AbstractStructureParserC2ERK7QStringS2_@Base 4:14.12.0
 _ZN23AbstractStructureParserD0Ev@Base 4:14.12.0
 _ZN23AbstractStructureParserD1Ev@Base 4:14.12.0
 _ZN23AbstractStructureParserD2Ev@Base 4:14.12.0
 _ZN23ScriptEngineInitializer25addFuctionsToScriptEngineEP13QScriptEngine@Base 4:14.12.0
 _ZN23ScriptEngineInitializer7Private13addUpdateFuncEP14QScriptContextP13QScriptEngine@Base 4:14.12.0
 _ZN23ScriptEngineInitializer7Private13scriptNewCharEP14QScriptContextP13QScriptEngine@Base 4:14.12.0
 _ZN23ScriptEngineInitializer7Private13scriptNewEnumEP14QScriptContextP13QScriptEngine@Base 4:14.12.0
 _ZN23ScriptEngineInitializer7Private13scriptNewInt8EP14QScriptContextP13QScriptEngine@Base 4:14.12.0
 _ZN23ScriptEngineInitializer7Private14scriptNewArrayEP14QScriptContextP13QScriptEngine@Base 4:14.12.0
 _ZN23ScriptEngineInitializer7Private14scriptNewBool8EP14QScriptContextP13QScriptEngine@Base 4:14.12.0
 _ZN23ScriptEngineInitializer7Private14scriptNewFlagsEP14QScriptContextP13QScriptEngine@Base 4:14.12.0
 _ZN23ScriptEngineInitializer7Private14scriptNewFloatEP14QScriptContextP13QScriptEngine@Base 4:14.12.0
 _ZN23ScriptEngineInitializer7Private14scriptNewInt16EP14QScriptContextP13QScriptEngine@Base 4:14.12.0
 _ZN23ScriptEngineInitializer7Private14scriptNewInt32EP14QScriptContextP13QScriptEngine@Base 4:14.12.0
 _ZN23ScriptEngineInitializer7Private14scriptNewInt64EP14QScriptContextP13QScriptEngine@Base 4:14.12.0
 _ZN23ScriptEngineInitializer7Private14scriptNewUInt8EP14QScriptContextP13QScriptEngine@Base 4:14.12.0
 _ZN23ScriptEngineInitializer7Private14scriptNewUnionEP14QScriptContextP13QScriptEngine@Base 4:14.12.0
 _ZN23ScriptEngineInitializer7Private15alternativeFuncEP14QScriptContextP13QScriptEngine@Base 4:14.12.0
 _ZN23ScriptEngineInitializer7Private15scriptNewBool16EP14QScriptContextP13QScriptEngine@Base 4:14.12.0
 _ZN23ScriptEngineInitializer7Private15scriptNewBool32EP14QScriptContextP13QScriptEngine@Base 4:14.12.0
 _ZN23ScriptEngineInitializer7Private15scriptNewBool64EP14QScriptContextP13QScriptEngine@Base 4:14.12.0
 _ZN23ScriptEngineInitializer7Private15scriptNewDoubleEP14QScriptContextP13QScriptEngine@Base 4:14.12.0
 _ZN23ScriptEngineInitializer7Private15scriptNewStringEP14QScriptContextP13QScriptEngine@Base 4:14.12.0
 _ZN23ScriptEngineInitializer7Private15scriptNewStructEP14QScriptContextP13QScriptEngine@Base 4:14.12.0
 _ZN23ScriptEngineInitializer7Private15scriptNewUInt16EP14QScriptContextP13QScriptEngine@Base 4:14.12.0
 _ZN23ScriptEngineInitializer7Private15scriptNewUInt32EP14QScriptContextP13QScriptEngine@Base 4:14.12.0
 _ZN23ScriptEngineInitializer7Private15scriptNewUInt64EP14QScriptContextP13QScriptEngine@Base 4:14.12.0
 _ZN23ScriptEngineInitializer7Private16createEnumObjectEP14QScriptContextP13QScriptEngineRK7QString@Base 4:14.12.0
 _ZN23ScriptEngineInitializer7Private16importScriptFuncEP14QScriptContextP13QScriptEngine@Base 4:14.12.0
 _ZN23ScriptEngineInitializer7Private16scriptNewPointerEP14QScriptContextP13QScriptEngine@Base 4:14.12.0
 _ZN23ScriptEngineInitializer7Private17addValidationFuncEP14QScriptContextP13QScriptEngine@Base 4:14.12.0
 _ZN23ScriptEngineInitializer7Private17scriptNewBitfieldEP14QScriptContextP13QScriptEngine@Base 4:14.12.0
 _ZN23ScriptEngineInitializer7Private20scriptNewTaggedUnionEP14QScriptContextP13QScriptEngine@Base 4:14.12.0
 _ZN23ScriptEngineInitializer7Private23addCustomPropertiesFuncEP14QScriptContextP13QScriptEngine@Base 4:14.12.0
 _ZN23ScriptEngineInitializer7Private8getChildEP14QScriptContextP13QScriptEngine@Base 4:14.12.0
 _ZN23ScriptEngineInitializer9newEngineEv@Base 4:14.12.0
 _ZN23TopLevelDataInformation11dataChangedEv@Base 4:14.12.0
 _ZN23TopLevelDataInformation11qt_metacallEN11QMetaObject4CallEiPPv@Base 4:14.12.0
 _ZN23TopLevelDataInformation11qt_metacastEPKc@Base 4:14.12.0
 _ZN23TopLevelDataInformation14INVALID_OFFSETE@Base 4:14.12.0
 _ZN23TopLevelDataInformation14unlockPositionEPKN6Okteta22AbstractByteArrayModelE@Base 4:14.12.0
 _ZN23TopLevelDataInformation15childrenRemovedEPK15DataInformationjj@Base 4:14.12.0
 _ZN23TopLevelDataInformation15enqueueReadDataEP22PointerDataInformation@Base 4:14.12.0
 _ZN23TopLevelDataInformation16childrenInsertedEPK15DataInformationjj@Base 4:14.12.0
 _ZN23TopLevelDataInformation16staticMetaObjectE@Base 4:14.12.0
 _ZN23TopLevelDataInformation17newModelActivatedEPN6Okteta22AbstractByteArrayModelE@Base 4:14.12.0
 _ZN23TopLevelDataInformation18isReadingNecessaryEPN6Okteta22AbstractByteArrayModelEiRKNS0_22ArrayChangeMetricsListE@Base 4:14.12.0
 _ZN23TopLevelDataInformation20lockPositionToOffsetEiPKN6Okteta22AbstractByteArrayModelE@Base 4:14.12.0
 _ZN23TopLevelDataInformation20resetValidationStateEv@Base 4:14.12.0
 _ZN23TopLevelDataInformation20setDefaultLockOffsetEi@Base 4:14.12.0
 _ZN23TopLevelDataInformation24childrenAboutToBeRemovedEP15DataInformationjj@Base 4:14.12.0
 _ZN23TopLevelDataInformation24setActualDataInformationEP15DataInformation@Base 4:14.12.0
 _ZN23TopLevelDataInformation25childrenAboutToBeInsertedEP15DataInformationjj@Base 4:14.12.0
 _ZN23TopLevelDataInformation28removeByteArrayModelFromListEP7QObject@Base 4:14.12.0
 _ZN23TopLevelDataInformation4readEPN6Okteta22AbstractByteArrayModelEiRKNS0_22ArrayChangeMetricsListEb@Base 4:14.12.0
 _ZN23TopLevelDataInformation8validateEv@Base 4:14.12.0
 _ZN23TopLevelDataInformationC1EP15DataInformationP12ScriptLoggerP13QScriptEngineRK9QFileInfo@Base 4:14.12.0
 _ZN23TopLevelDataInformationC2EP15DataInformationP12ScriptLoggerP13QScriptEngineRK9QFileInfo@Base 4:14.12.0
 _ZN23TopLevelDataInformationD0Ev@Base 4:14.12.0
 _ZN23TopLevelDataInformationD1Ev@Base 4:14.12.0
 _ZN23TopLevelDataInformationD2Ev@Base 4:14.12.0
 _ZN24PrimitiveDataInformation11octalPrefixE@Base 4:14.12.0
 _ZN24PrimitiveDataInformation12binaryPrefixE@Base 4:14.12.0
 _ZN24PrimitiveDataInformation9hexPrefixE@Base 4:14.12.0
 _ZN24PrimitiveDataInformationD0Ev@Base 4:14.12.0
 _ZN24PrimitiveDataInformationD1Ev@Base 4:14.12.0
 _ZN24PrimitiveDataInformationD2Ev@Base 4:14.12.0
 _ZN24StructureDataInformation12readChildrenE7QVectorIP15DataInformationEPN6Okteta22AbstractByteArrayModelEiyPhPxP23TopLevelDataInformation@Base 4:14.12.0
 _ZN24StructureDataInformation8readDataEPN6Okteta22AbstractByteArrayModelEiyPh@Base 4:14.12.0
 _ZN24StructureDataInformationC1ERK7QStringRK7QVectorIP15DataInformationES5_@Base 4:14.12.0
 _ZN24StructureDataInformationC2ERK7QStringRK7QVectorIP15DataInformationES5_@Base 4:14.12.0
 _ZN24StructureDataInformationD0Ev@Base 4:14.12.0
 _ZN24StructureDataInformationD1Ev@Base 4:14.12.0
 _ZN24StructureDataInformationD2Ev@Base 4:14.12.0
 (optional=templinst)_ZN26BoolDataInformationMethodsIhE11fromVariantERK8QVariantPb@Base 4:14.12.0
 (optional=templinst)_ZN26BoolDataInformationMethodsIhE13asScriptValueEhP13QScriptEngineP17ScriptHandlerInfo@Base 4:14.12.0
 (optional=templinst)_ZN26BoolDataInformationMethodsIhE17staticValueStringEhi@Base 4:14.12.0
 (optional=templinst)_ZN26BoolDataInformationMethodsIhE19staticSetWidgetDataEhP7QWidget@Base 4:14.12.0
 (optional=templinst)_ZN26BoolDataInformationMethodsIhE20staticDataFromWidgetEPK7QWidget@Base 4:14.12.0
 (optional=templinst)_ZN26BoolDataInformationMethodsIhE22staticCreateEditWidgetEP7QWidget@Base 4:14.12.0
 (optional=templinst)_ZN26BoolDataInformationMethodsIjE11fromVariantERK8QVariantPb@Base 4:14.12.0
 (optional=templinst)_ZN26BoolDataInformationMethodsIjE13asScriptValueEjP13QScriptEngineP17ScriptHandlerInfo@Base 4:14.12.0
 (optional=templinst)_ZN26BoolDataInformationMethodsIjE17staticValueStringEji@Base 4:14.12.0
 (optional=templinst)_ZN26BoolDataInformationMethodsIjE19staticSetWidgetDataEjP7QWidget@Base 4:14.12.0
 (optional=templinst)_ZN26BoolDataInformationMethodsIjE20staticDataFromWidgetEPK7QWidget@Base 4:14.12.0
 (optional=templinst)_ZN26BoolDataInformationMethodsIjE22staticCreateEditWidgetEP7QWidget@Base 4:14.12.0
 (optional=templinst)_ZN26BoolDataInformationMethodsItE11fromVariantERK8QVariantPb@Base 4:14.12.0
 (optional=templinst)_ZN26BoolDataInformationMethodsItE13asScriptValueEtP13QScriptEngineP17ScriptHandlerInfo@Base 4:14.12.0
 (optional=templinst)_ZN26BoolDataInformationMethodsItE17staticValueStringEti@Base 4:14.12.0
 (optional=templinst)_ZN26BoolDataInformationMethodsItE19staticSetWidgetDataEtP7QWidget@Base 4:14.12.0
 (optional=templinst)_ZN26BoolDataInformationMethodsItE20staticDataFromWidgetEPK7QWidget@Base 4:14.12.0
 (optional=templinst)_ZN26BoolDataInformationMethodsItE22staticCreateEditWidgetEP7QWidget@Base 4:14.12.0
 (optional=templinst)_ZN26BoolDataInformationMethodsIyE11fromVariantERK8QVariantPb@Base 4:14.12.0
 (optional=templinst)_ZN26BoolDataInformationMethodsIyE13asScriptValueEyP13QScriptEngineP17ScriptHandlerInfo@Base 4:14.12.0
 (optional=templinst)_ZN26BoolDataInformationMethodsIyE17staticValueStringEyi@Base 4:14.12.0
 (optional=templinst)_ZN26BoolDataInformationMethodsIyE19staticSetWidgetDataEyP7QWidget@Base 4:14.12.0
 (optional=templinst)_ZN26BoolDataInformationMethodsIyE20staticDataFromWidgetEPK7QWidget@Base 4:14.12.0
 (optional=templinst)_ZN26BoolDataInformationMethodsIyE22staticCreateEditWidgetEP7QWidget@Base 4:14.12.0
 _ZN26CharDataInformationMethods13asScriptValueEhP13QScriptEngineP17ScriptHandlerInfo@Base 4:14.12.0
 _ZN26CharDataInformationMethods17staticValueStringEh@Base 4:14.12.0
 _ZN26CharDataInformationMethods19staticSetWidgetDataEhP7QWidget@Base 4:14.12.0
 _ZN26CharDataInformationMethods20staticDataFromWidgetEPK7QWidget@Base 4:14.12.0
 _ZN26CharDataInformationMethods22staticCreateEditWidgetEP7QWidget@Base 4:14.12.0
 _ZN26DefaultscriptClassIterator4nextEv@Base 4:14.12.0
 _ZN26DefaultscriptClassIterator6toBackEv@Base 4:14.12.0
 _ZN26DefaultscriptClassIterator7toFrontEv@Base 4:14.12.0
 _ZN26DefaultscriptClassIterator8previousEv@Base 4:14.12.0
 _ZN26DefaultscriptClassIteratorC1ERK12QScriptValueP18DefaultScriptClass@Base 4:14.12.0
 _ZN26DefaultscriptClassIteratorC2ERK12QScriptValueP18DefaultScriptClass@Base 4:14.12.0
 _ZN26DefaultscriptClassIteratorD0Ev@Base 4:14.12.0
 _ZN26DefaultscriptClassIteratorD1Ev@Base 4:14.12.0
 _ZN26DefaultscriptClassIteratorD2Ev@Base 4:14.12.0
 (optional=templinst)_ZN26SIntDataInformationMethodsIaE11fromVariantERK8QVariantPb@Base 4:14.12.0
 (optional=templinst)_ZN26SIntDataInformationMethodsIaE13asScriptValueEaP13QScriptEngineP17ScriptHandlerInfo@Base 4:14.12.0
 (optional=templinst)_ZN26SIntDataInformationMethodsIaE17staticValueStringEai@Base 4:14.12.0
 (optional=templinst)_ZN26SIntDataInformationMethodsIaE19staticSetWidgetDataEaP7QWidget@Base 4:14.12.0
 (optional=templinst)_ZN26SIntDataInformationMethodsIaE20staticDataFromWidgetEPK7QWidget@Base 4:14.12.0
 (optional=templinst)_ZN26SIntDataInformationMethodsIaE22staticCreateEditWidgetEP7QWidget@Base 4:14.12.0
 (optional=templinst)_ZN26SIntDataInformationMethodsIiE11fromVariantERK8QVariantPb@Base 4:14.12.0
 (optional=templinst)_ZN26SIntDataInformationMethodsIiE13asScriptValueEiP13QScriptEngineP17ScriptHandlerInfo@Base 4:14.12.0
 (optional=templinst)_ZN26SIntDataInformationMethodsIiE17staticValueStringEii@Base 4:14.12.0
 (optional=templinst)_ZN26SIntDataInformationMethodsIiE19staticSetWidgetDataEiP7QWidget@Base 4:14.12.0
 (optional=templinst)_ZN26SIntDataInformationMethodsIiE20staticDataFromWidgetEPK7QWidget@Base 4:14.12.0
 (optional=templinst)_ZN26SIntDataInformationMethodsIiE22staticCreateEditWidgetEP7QWidget@Base 4:14.12.0
 (optional=templinst)_ZN26SIntDataInformationMethodsIsE11fromVariantERK8QVariantPb@Base 4:14.12.0
 (optional=templinst)_ZN26SIntDataInformationMethodsIsE13asScriptValueEsP13QScriptEngineP17ScriptHandlerInfo@Base 4:14.12.0
 (optional=templinst)_ZN26SIntDataInformationMethodsIsE17staticValueStringEsi@Base 4:14.12.0
 (optional=templinst)_ZN26SIntDataInformationMethodsIsE19staticSetWidgetDataEsP7QWidget@Base 4:14.12.0
 (optional=templinst)_ZN26SIntDataInformationMethodsIsE20staticDataFromWidgetEPK7QWidget@Base 4:14.12.0
 (optional=templinst)_ZN26SIntDataInformationMethodsIsE22staticCreateEditWidgetEP7QWidget@Base 4:14.12.0
 (optional=templinst)_ZN26SIntDataInformationMethodsIxE11fromVariantERK8QVariantPb@Base 4:14.12.0
 (optional=templinst)_ZN26SIntDataInformationMethodsIxE13asScriptValueExP13QScriptEngineP17ScriptHandlerInfo@Base 4:14.12.0
 (optional=templinst)_ZN26SIntDataInformationMethodsIxE17staticValueStringExi@Base 4:14.12.0
 (optional=templinst)_ZN26SIntDataInformationMethodsIxE19staticSetWidgetDataExP7QWidget@Base 4:14.12.0
 (optional=templinst)_ZN26SIntDataInformationMethodsIxE20staticDataFromWidgetEPK7QWidget@Base 4:14.12.0
 (optional=templinst)_ZN26SIntDataInformationMethodsIxE22staticCreateEditWidgetEP7QWidget@Base 4:14.12.0
 _ZN26TaggedUnionDataInformation14replaceChildAtEjP15DataInformation@Base 4:14.12.0
 _ZN26TaggedUnionDataInformation15setAlternativesERK7QVectorINS_9FieldInfoEEb@Base 4:14.12.0
 _ZN26TaggedUnionDataInformation18appendDefaultFieldEP15DataInformationb@Base 4:14.12.0
 _ZN26TaggedUnionDataInformation18determineSelectionEP23TopLevelDataInformation@Base 4:14.12.0
 _ZN26TaggedUnionDataInformation8readDataEPN6Okteta22AbstractByteArrayModelEiyPh@Base 4:14.12.0
 _ZN26TaggedUnionDataInformationC1ERK7QStringP15DataInformation@Base 4:14.12.0
 _ZN26TaggedUnionDataInformationC1ERKS_@Base 4:14.12.0
 _ZN26TaggedUnionDataInformationC2ERK7QStringP15DataInformation@Base 4:14.12.0
 _ZN26TaggedUnionDataInformationC2ERKS_@Base 4:14.12.0
 _ZN26TaggedUnionDataInformationD0Ev@Base 4:14.12.0
 _ZN26TaggedUnionDataInformationD1Ev@Base 4:14.12.0
 _ZN26TaggedUnionDataInformationD2Ev@Base 4:14.12.0
 (optional=templinst)_ZN26UIntDataInformationMethodsIhE11fromVariantERK8QVariantPb@Base 4:14.12.0
 (optional=templinst)_ZN26UIntDataInformationMethodsIhE13asScriptValueEhP13QScriptEngineP17ScriptHandlerInfo@Base 4:14.12.0
 (optional=templinst)_ZN26UIntDataInformationMethodsIhE17staticValueStringEhi@Base 4:14.12.0
 (optional=templinst)_ZN26UIntDataInformationMethodsIhE19staticSetWidgetDataEhP7QWidget@Base 4:14.12.0
 (optional=templinst)_ZN26UIntDataInformationMethodsIhE20staticDataFromWidgetEPK7QWidget@Base 4:14.12.0
 (optional=templinst)_ZN26UIntDataInformationMethodsIhE22staticCreateEditWidgetEP7QWidget@Base 4:14.12.0
 (optional=templinst)_ZN26UIntDataInformationMethodsIjE11fromVariantERK8QVariantPb@Base 4:14.12.0
 (optional=templinst)_ZN26UIntDataInformationMethodsIjE13asScriptValueEjP13QScriptEngineP17ScriptHandlerInfo@Base 4:14.12.0
 (optional=templinst)_ZN26UIntDataInformationMethodsIjE17staticValueStringEji@Base 4:14.12.0
 (optional=templinst)_ZN26UIntDataInformationMethodsIjE19staticSetWidgetDataEjP7QWidget@Base 4:14.12.0
 (optional=templinst)_ZN26UIntDataInformationMethodsIjE20staticDataFromWidgetEPK7QWidget@Base 4:14.12.0
 (optional=templinst)_ZN26UIntDataInformationMethodsIjE22staticCreateEditWidgetEP7QWidget@Base 4:14.12.0
 (optional=templinst)_ZN26UIntDataInformationMethodsItE11fromVariantERK8QVariantPb@Base 4:14.12.0
 (optional=templinst)_ZN26UIntDataInformationMethodsItE13asScriptValueEtP13QScriptEngineP17ScriptHandlerInfo@Base 4:14.12.0
 (optional=templinst)_ZN26UIntDataInformationMethodsItE17staticValueStringEti@Base 4:14.12.0
 (optional=templinst)_ZN26UIntDataInformationMethodsItE19staticSetWidgetDataEtP7QWidget@Base 4:14.12.0
 (optional=templinst)_ZN26UIntDataInformationMethodsItE20staticDataFromWidgetEPK7QWidget@Base 4:14.12.0
 (optional=templinst)_ZN26UIntDataInformationMethodsItE22staticCreateEditWidgetEP7QWidget@Base 4:14.12.0
 (optional=templinst)_ZN26UIntDataInformationMethodsIyE11fromVariantERK8QVariantPb@Base 4:14.12.0
 (optional=templinst)_ZN26UIntDataInformationMethodsIyE13asScriptValueEyP13QScriptEngineP17ScriptHandlerInfo@Base 4:14.12.0
 (optional=templinst)_ZN26UIntDataInformationMethodsIyE17staticValueStringEyi@Base 4:14.12.0
 (optional=templinst)_ZN26UIntDataInformationMethodsIyE19staticSetWidgetDataEyP7QWidget@Base 4:14.12.0
 (optional=templinst)_ZN26UIntDataInformationMethodsIyE20staticDataFromWidgetEPK7QWidget@Base 4:14.12.0
 (optional=templinst)_ZN26UIntDataInformationMethodsIyE22staticCreateEditWidgetEP7QWidget@Base 4:14.12.0
 _ZN27BoolBitfieldDataInformationD0Ev@Base 4:14.12.0
 _ZN27BoolBitfieldDataInformationD1Ev@Base 4:14.12.0
 _ZN27BoolBitfieldDataInformationD2Ev@Base 4:14.12.0
 _ZN27DataInformationWithChildren11appendChildEP15DataInformationb@Base 4:14.12.0
 _ZN27DataInformationWithChildren11setChildrenE12QScriptValue@Base 4:14.12.0
 _ZN27DataInformationWithChildren11setChildrenERK7QVectorIP15DataInformationE@Base 4:14.12.0
 _ZN27DataInformationWithChildren14appendChildrenERK7QVectorIP15DataInformationEb@Base 4:14.12.0
 _ZN27DataInformationWithChildren14replaceChildAtEjP15DataInformation@Base 4:14.12.0
 _ZN27DataInformationWithChildren20resetValidationStateEv@Base 4:14.12.0
 _ZN27DataInformationWithChildren24calculateValidationStateEv@Base 4:14.12.0
 _ZN27DataInformationWithChildren7setDataERK8QVariantPN6Okteta22AbstractByteArrayModelEiyh@Base 4:14.12.0
 _ZN27DataInformationWithChildren9cloneListERK7QVectorIP15DataInformationES2_@Base 4:14.12.0
 _ZN27DataInformationWithChildrenC1ERK7QStringRK7QVectorIP15DataInformationES5_@Base 4:14.12.0
 _ZN27DataInformationWithChildrenC1ERKS_@Base 4:14.12.0
 _ZN27DataInformationWithChildrenC2ERK7QStringRK7QVectorIP15DataInformationES5_@Base 4:14.12.0
 _ZN27DataInformationWithChildrenC2ERKS_@Base 4:14.12.0
 _ZN27DataInformationWithChildrenD0Ev@Base 4:14.12.0
 _ZN27DataInformationWithChildrenD1Ev@Base 4:14.12.0
 _ZN27DataInformationWithChildrenD2Ev@Base 4:14.12.0
 _ZN27FloatDataInformationMethods13asScriptValueEfP13QScriptEngineP17ScriptHandlerInfo@Base 4:14.12.0
 _ZN27FloatDataInformationMethods17staticValueStringEf@Base 4:14.12.0
 _ZN27FloatDataInformationMethods19staticSetWidgetDataEfP7QWidget@Base 4:14.12.0
 _ZN27FloatDataInformationMethods20staticDataFromWidgetEPK7QWidget@Base 4:14.12.0
 _ZN27FloatDataInformationMethods22staticCreateEditWidgetEP7QWidget@Base 4:14.12.0
 _ZN28DoubleDataInformationMethods13asScriptValueEdP13QScriptEngineP17ScriptHandlerInfo@Base 4:14.12.0
 _ZN28DoubleDataInformationMethods17staticValueStringEd@Base 4:14.12.0
 _ZN28DoubleDataInformationMethods19staticSetWidgetDataEdP7QWidget@Base 4:14.12.0
 _ZN28DoubleDataInformationMethods20staticDataFromWidgetEPK7QWidget@Base 4:14.12.0
 _ZN28DoubleDataInformationMethods22staticCreateEditWidgetEP7QWidget@Base 4:14.12.0
 (optional=templinst)_ZN29BasicPrimitiveDataInformationIa26SIntDataInformationMethodsIaEE7setDataERK8QVariantPN6Okteta22AbstractByteArrayModelEiyh@Base 4:14.12.0
 (optional=templinst)_ZN29BasicPrimitiveDataInformationIa26SIntDataInformationMethodsIaEE8readDataEPN6Okteta22AbstractByteArrayModelEiyPh@Base 4:14.12.0
 (optional=templinst)_ZN29BasicPrimitiveDataInformationIa26SIntDataInformationMethodsIaEE8setValueE17AllPrimitiveTypes@Base 4:14.12.0
 (optional=templinst)_ZN29BasicPrimitiveDataInformationIa26SIntDataInformationMethodsIaEEC1ERK7QStringP15DataInformation@Base 4:14.12.0
 (optional=templinst)_ZN29BasicPrimitiveDataInformationIa26SIntDataInformationMethodsIaEEC1ERKS2_@Base 4:14.12.0
 (optional=templinst)_ZN29BasicPrimitiveDataInformationIa26SIntDataInformationMethodsIaEEC2ERK7QStringP15DataInformation@Base 4:14.12.0
 (optional=templinst)_ZN29BasicPrimitiveDataInformationIa26SIntDataInformationMethodsIaEEC2ERKS2_@Base 4:14.12.0
 (optional=templinst)_ZN29BasicPrimitiveDataInformationIa26SIntDataInformationMethodsIaEED0Ev@Base 4:14.12.0
 (optional=templinst)_ZN29BasicPrimitiveDataInformationIa26SIntDataInformationMethodsIaEED1Ev@Base 4:14.12.0
 (optional=templinst)_ZN29BasicPrimitiveDataInformationIa26SIntDataInformationMethodsIaEED2Ev@Base 4:14.12.0
 (optional=templinst)_ZN29BasicPrimitiveDataInformationId28DoubleDataInformationMethodsE7setDataERK8QVariantPN6Okteta22AbstractByteArrayModelEiyh@Base 4:14.12.0
 (optional=templinst)_ZN29BasicPrimitiveDataInformationId28DoubleDataInformationMethodsE8readDataEPN6Okteta22AbstractByteArrayModelEiyPh@Base 4:14.12.0
 (optional=templinst)_ZN29BasicPrimitiveDataInformationId28DoubleDataInformationMethodsE8setValueE17AllPrimitiveTypes@Base 4:14.12.0
 (optional=templinst)_ZN29BasicPrimitiveDataInformationId28DoubleDataInformationMethodsEC1ERK7QStringP15DataInformation@Base 4:14.12.0
 (optional=templinst)_ZN29BasicPrimitiveDataInformationId28DoubleDataInformationMethodsEC1ERKS1_@Base 4:14.12.0
 (optional=templinst)_ZN29BasicPrimitiveDataInformationId28DoubleDataInformationMethodsEC2ERK7QStringP15DataInformation@Base 4:14.12.0
 (optional=templinst)_ZN29BasicPrimitiveDataInformationId28DoubleDataInformationMethodsEC2ERKS1_@Base 4:14.12.0
 (optional=templinst)_ZN29BasicPrimitiveDataInformationId28DoubleDataInformationMethodsED0Ev@Base 4:14.12.0
 (optional=templinst)_ZN29BasicPrimitiveDataInformationId28DoubleDataInformationMethodsED1Ev@Base 4:14.12.0
 (optional=templinst)_ZN29BasicPrimitiveDataInformationId28DoubleDataInformationMethodsED2Ev@Base 4:14.12.0
 (optional=templinst)_ZN29BasicPrimitiveDataInformationIf27FloatDataInformationMethodsE7setDataERK8QVariantPN6Okteta22AbstractByteArrayModelEiyh@Base 4:14.12.0
 (optional=templinst)_ZN29BasicPrimitiveDataInformationIf27FloatDataInformationMethodsE8readDataEPN6Okteta22AbstractByteArrayModelEiyPh@Base 4:14.12.0
 (optional=templinst)_ZN29BasicPrimitiveDataInformationIf27FloatDataInformationMethodsE8setValueE17AllPrimitiveTypes@Base 4:14.12.0
 (optional=templinst)_ZN29BasicPrimitiveDataInformationIf27FloatDataInformationMethodsEC1ERK7QStringP15DataInformation@Base 4:14.12.0
 (optional=templinst)_ZN29BasicPrimitiveDataInformationIf27FloatDataInformationMethodsEC1ERKS1_@Base 4:14.12.0
 (optional=templinst)_ZN29BasicPrimitiveDataInformationIf27FloatDataInformationMethodsEC2ERK7QStringP15DataInformation@Base 4:14.12.0
 (optional=templinst)_ZN29BasicPrimitiveDataInformationIf27FloatDataInformationMethodsEC2ERKS1_@Base 4:14.12.0
 (optional=templinst)_ZN29BasicPrimitiveDataInformationIf27FloatDataInformationMethodsED0Ev@Base 4:14.12.0
 (optional=templinst)_ZN29BasicPrimitiveDataInformationIf27FloatDataInformationMethodsED1Ev@Base 4:14.12.0
 (optional=templinst)_ZN29BasicPrimitiveDataInformationIf27FloatDataInformationMethodsED2Ev@Base 4:14.12.0
 (optional=templinst)_ZN29BasicPrimitiveDataInformationIh26BoolDataInformationMethodsIhEE7setDataERK8QVariantPN6Okteta22AbstractByteArrayModelEiyh@Base 4:14.12.0
 (optional=templinst)_ZN29BasicPrimitiveDataInformationIh26BoolDataInformationMethodsIhEE8readDataEPN6Okteta22AbstractByteArrayModelEiyPh@Base 4:14.12.0
 (optional=templinst)_ZN29BasicPrimitiveDataInformationIh26BoolDataInformationMethodsIhEE8setValueE17AllPrimitiveTypes@Base 4:14.12.0
 (optional=templinst)_ZN29BasicPrimitiveDataInformationIh26BoolDataInformationMethodsIhEEC1ERK7QStringP15DataInformation@Base 4:14.12.0
 (optional=templinst)_ZN29BasicPrimitiveDataInformationIh26BoolDataInformationMethodsIhEEC1ERKS2_@Base 4:14.12.0
 (optional=templinst)_ZN29BasicPrimitiveDataInformationIh26BoolDataInformationMethodsIhEEC2ERK7QStringP15DataInformation@Base 4:14.12.0
 (optional=templinst)_ZN29BasicPrimitiveDataInformationIh26BoolDataInformationMethodsIhEEC2ERKS2_@Base 4:14.12.0
 (optional=templinst)_ZN29BasicPrimitiveDataInformationIh26BoolDataInformationMethodsIhEED0Ev@Base 4:14.12.0
 (optional=templinst)_ZN29BasicPrimitiveDataInformationIh26BoolDataInformationMethodsIhEED1Ev@Base 4:14.12.0
 (optional=templinst)_ZN29BasicPrimitiveDataInformationIh26BoolDataInformationMethodsIhEED2Ev@Base 4:14.12.0
 (optional=templinst)_ZN29BasicPrimitiveDataInformationIh26CharDataInformationMethodsE7setDataERK8QVariantPN6Okteta22AbstractByteArrayModelEiyh@Base 4:14.12.0
 (optional=templinst)_ZN29BasicPrimitiveDataInformationIh26CharDataInformationMethodsE8readDataEPN6Okteta22AbstractByteArrayModelEiyPh@Base 4:14.12.0
 (optional=templinst)_ZN29BasicPrimitiveDataInformationIh26CharDataInformationMethodsE8setValueE17AllPrimitiveTypes@Base 4:14.12.0
 (optional=templinst)_ZN29BasicPrimitiveDataInformationIh26CharDataInformationMethodsEC1ERK7QStringP15DataInformation@Base 4:14.12.0
 (optional=templinst)_ZN29BasicPrimitiveDataInformationIh26CharDataInformationMethodsEC1ERKS1_@Base 4:14.12.0
 (optional=templinst)_ZN29BasicPrimitiveDataInformationIh26CharDataInformationMethodsEC2ERK7QStringP15DataInformation@Base 4:14.12.0
 (optional=templinst)_ZN29BasicPrimitiveDataInformationIh26CharDataInformationMethodsEC2ERKS1_@Base 4:14.12.0
 (optional=templinst)_ZN29BasicPrimitiveDataInformationIh26CharDataInformationMethodsED0Ev@Base 4:14.12.0
 (optional=templinst)_ZN29BasicPrimitiveDataInformationIh26CharDataInformationMethodsED1Ev@Base 4:14.12.0
 (optional=templinst)_ZN29BasicPrimitiveDataInformationIh26CharDataInformationMethodsED2Ev@Base 4:14.12.0
 (optional=templinst)_ZN29BasicPrimitiveDataInformationIh26UIntDataInformationMethodsIhEE7setDataERK8QVariantPN6Okteta22AbstractByteArrayModelEiyh@Base 4:14.12.0
 (optional=templinst)_ZN29BasicPrimitiveDataInformationIh26UIntDataInformationMethodsIhEE8readDataEPN6Okteta22AbstractByteArrayModelEiyPh@Base 4:14.12.0
 (optional=templinst)_ZN29BasicPrimitiveDataInformationIh26UIntDataInformationMethodsIhEE8setValueE17AllPrimitiveTypes@Base 4:14.12.0
 (optional=templinst)_ZN29BasicPrimitiveDataInformationIh26UIntDataInformationMethodsIhEEC1ERK7QStringP15DataInformation@Base 4:14.12.0
 (optional=templinst)_ZN29BasicPrimitiveDataInformationIh26UIntDataInformationMethodsIhEEC1ERKS2_@Base 4:14.12.0
 (optional=templinst)_ZN29BasicPrimitiveDataInformationIh26UIntDataInformationMethodsIhEEC2ERK7QStringP15DataInformation@Base 4:14.12.0
 (optional=templinst)_ZN29BasicPrimitiveDataInformationIh26UIntDataInformationMethodsIhEEC2ERKS2_@Base 4:14.12.0
 (optional=templinst)_ZN29BasicPrimitiveDataInformationIh26UIntDataInformationMethodsIhEED0Ev@Base 4:14.12.0
 (optional=templinst)_ZN29BasicPrimitiveDataInformationIh26UIntDataInformationMethodsIhEED1Ev@Base 4:14.12.0
 (optional=templinst)_ZN29BasicPrimitiveDataInformationIh26UIntDataInformationMethodsIhEED2Ev@Base 4:14.12.0
 (optional=templinst)_ZN29BasicPrimitiveDataInformationIi26SIntDataInformationMethodsIiEE7setDataERK8QVariantPN6Okteta22AbstractByteArrayModelEiyh@Base 4:14.12.0
 (optional=templinst)_ZN29BasicPrimitiveDataInformationIi26SIntDataInformationMethodsIiEE8readDataEPN6Okteta22AbstractByteArrayModelEiyPh@Base 4:14.12.0
 (optional=templinst)_ZN29BasicPrimitiveDataInformationIi26SIntDataInformationMethodsIiEE8setValueE17AllPrimitiveTypes@Base 4:14.12.0
 (optional=templinst)_ZN29BasicPrimitiveDataInformationIi26SIntDataInformationMethodsIiEEC1ERK7QStringP15DataInformation@Base 4:14.12.0
 (optional=templinst)_ZN29BasicPrimitiveDataInformationIi26SIntDataInformationMethodsIiEEC1ERKS2_@Base 4:14.12.0
 (optional=templinst)_ZN29BasicPrimitiveDataInformationIi26SIntDataInformationMethodsIiEEC2ERK7QStringP15DataInformation@Base 4:14.12.0
 (optional=templinst)_ZN29BasicPrimitiveDataInformationIi26SIntDataInformationMethodsIiEEC2ERKS2_@Base 4:14.12.0
 (optional=templinst)_ZN29BasicPrimitiveDataInformationIi26SIntDataInformationMethodsIiEED0Ev@Base 4:14.12.0
 (optional=templinst)_ZN29BasicPrimitiveDataInformationIi26SIntDataInformationMethodsIiEED1Ev@Base 4:14.12.0
 (optional=templinst)_ZN29BasicPrimitiveDataInformationIi26SIntDataInformationMethodsIiEED2Ev@Base 4:14.12.0
 (optional=templinst)_ZN29BasicPrimitiveDataInformationIj26BoolDataInformationMethodsIjEE7setDataERK8QVariantPN6Okteta22AbstractByteArrayModelEiyh@Base 4:14.12.0
 (optional=templinst)_ZN29BasicPrimitiveDataInformationIj26BoolDataInformationMethodsIjEE8readDataEPN6Okteta22AbstractByteArrayModelEiyPh@Base 4:14.12.0
 (optional=templinst)_ZN29BasicPrimitiveDataInformationIj26BoolDataInformationMethodsIjEE8setValueE17AllPrimitiveTypes@Base 4:14.12.0
 (optional=templinst)_ZN29BasicPrimitiveDataInformationIj26BoolDataInformationMethodsIjEEC1ERK7QStringP15DataInformation@Base 4:14.12.0
 (optional=templinst)_ZN29BasicPrimitiveDataInformationIj26BoolDataInformationMethodsIjEEC1ERKS2_@Base 4:14.12.0
 (optional=templinst)_ZN29BasicPrimitiveDataInformationIj26BoolDataInformationMethodsIjEEC2ERK7QStringP15DataInformation@Base 4:14.12.0
 (optional=templinst)_ZN29BasicPrimitiveDataInformationIj26BoolDataInformationMethodsIjEEC2ERKS2_@Base 4:14.12.0
 (optional=templinst)_ZN29BasicPrimitiveDataInformationIj26BoolDataInformationMethodsIjEED0Ev@Base 4:14.12.0
 (optional=templinst)_ZN29BasicPrimitiveDataInformationIj26BoolDataInformationMethodsIjEED1Ev@Base 4:14.12.0
 (optional=templinst)_ZN29BasicPrimitiveDataInformationIj26BoolDataInformationMethodsIjEED2Ev@Base 4:14.12.0
 (optional=templinst)_ZN29BasicPrimitiveDataInformationIj26UIntDataInformationMethodsIjEE7setDataERK8QVariantPN6Okteta22AbstractByteArrayModelEiyh@Base 4:14.12.0
 (optional=templinst)_ZN29BasicPrimitiveDataInformationIj26UIntDataInformationMethodsIjEE8readDataEPN6Okteta22AbstractByteArrayModelEiyPh@Base 4:14.12.0
 (optional=templinst)_ZN29BasicPrimitiveDataInformationIj26UIntDataInformationMethodsIjEE8setValueE17AllPrimitiveTypes@Base 4:14.12.0
 (optional=templinst)_ZN29BasicPrimitiveDataInformationIj26UIntDataInformationMethodsIjEEC1ERK7QStringP15DataInformation@Base 4:14.12.0
 (optional=templinst)_ZN29BasicPrimitiveDataInformationIj26UIntDataInformationMethodsIjEEC1ERKS2_@Base 4:14.12.0
 (optional=templinst)_ZN29BasicPrimitiveDataInformationIj26UIntDataInformationMethodsIjEEC2ERK7QStringP15DataInformation@Base 4:14.12.0
 (optional=templinst)_ZN29BasicPrimitiveDataInformationIj26UIntDataInformationMethodsIjEEC2ERKS2_@Base 4:14.12.0
 (optional=templinst)_ZN29BasicPrimitiveDataInformationIj26UIntDataInformationMethodsIjEED0Ev@Base 4:14.12.0
 (optional=templinst)_ZN29BasicPrimitiveDataInformationIj26UIntDataInformationMethodsIjEED1Ev@Base 4:14.12.0
 (optional=templinst)_ZN29BasicPrimitiveDataInformationIj26UIntDataInformationMethodsIjEED2Ev@Base 4:14.12.0
 (optional=templinst)_ZN29BasicPrimitiveDataInformationIs26SIntDataInformationMethodsIsEE7setDataERK8QVariantPN6Okteta22AbstractByteArrayModelEiyh@Base 4:14.12.0
 (optional=templinst)_ZN29BasicPrimitiveDataInformationIs26SIntDataInformationMethodsIsEE8readDataEPN6Okteta22AbstractByteArrayModelEiyPh@Base 4:14.12.0
 (optional=templinst)_ZN29BasicPrimitiveDataInformationIs26SIntDataInformationMethodsIsEE8setValueE17AllPrimitiveTypes@Base 4:14.12.0
 (optional=templinst)_ZN29BasicPrimitiveDataInformationIs26SIntDataInformationMethodsIsEEC1ERK7QStringP15DataInformation@Base 4:14.12.0
 (optional=templinst)_ZN29BasicPrimitiveDataInformationIs26SIntDataInformationMethodsIsEEC1ERKS2_@Base 4:14.12.0
 (optional=templinst)_ZN29BasicPrimitiveDataInformationIs26SIntDataInformationMethodsIsEEC2ERK7QStringP15DataInformation@Base 4:14.12.0
 (optional=templinst)_ZN29BasicPrimitiveDataInformationIs26SIntDataInformationMethodsIsEEC2ERKS2_@Base 4:14.12.0
 (optional=templinst)_ZN29BasicPrimitiveDataInformationIs26SIntDataInformationMethodsIsEED0Ev@Base 4:14.12.0
 (optional=templinst)_ZN29BasicPrimitiveDataInformationIs26SIntDataInformationMethodsIsEED1Ev@Base 4:14.12.0
 (optional=templinst)_ZN29BasicPrimitiveDataInformationIs26SIntDataInformationMethodsIsEED2Ev@Base 4:14.12.0
 (optional=templinst)_ZN29BasicPrimitiveDataInformationIt26BoolDataInformationMethodsItEE7setDataERK8QVariantPN6Okteta22AbstractByteArrayModelEiyh@Base 4:14.12.0
 (optional=templinst)_ZN29BasicPrimitiveDataInformationIt26BoolDataInformationMethodsItEE8readDataEPN6Okteta22AbstractByteArrayModelEiyPh@Base 4:14.12.0
 (optional=templinst)_ZN29BasicPrimitiveDataInformationIt26BoolDataInformationMethodsItEE8setValueE17AllPrimitiveTypes@Base 4:14.12.0
 (optional=templinst)_ZN29BasicPrimitiveDataInformationIt26BoolDataInformationMethodsItEEC1ERK7QStringP15DataInformation@Base 4:14.12.0
 (optional=templinst)_ZN29BasicPrimitiveDataInformationIt26BoolDataInformationMethodsItEEC1ERKS2_@Base 4:14.12.0
 (optional=templinst)_ZN29BasicPrimitiveDataInformationIt26BoolDataInformationMethodsItEEC2ERK7QStringP15DataInformation@Base 4:14.12.0
 (optional=templinst)_ZN29BasicPrimitiveDataInformationIt26BoolDataInformationMethodsItEEC2ERKS2_@Base 4:14.12.0
 (optional=templinst)_ZN29BasicPrimitiveDataInformationIt26BoolDataInformationMethodsItEED0Ev@Base 4:14.12.0
 (optional=templinst)_ZN29BasicPrimitiveDataInformationIt26BoolDataInformationMethodsItEED1Ev@Base 4:14.12.0
 (optional=templinst)_ZN29BasicPrimitiveDataInformationIt26BoolDataInformationMethodsItEED2Ev@Base 4:14.12.0
 (optional=templinst)_ZN29BasicPrimitiveDataInformationIt26UIntDataInformationMethodsItEE7setDataERK8QVariantPN6Okteta22AbstractByteArrayModelEiyh@Base 4:14.12.0
 (optional=templinst)_ZN29BasicPrimitiveDataInformationIt26UIntDataInformationMethodsItEE8readDataEPN6Okteta22AbstractByteArrayModelEiyPh@Base 4:14.12.0
 (optional=templinst)_ZN29BasicPrimitiveDataInformationIt26UIntDataInformationMethodsItEE8setValueE17AllPrimitiveTypes@Base 4:14.12.0
 (optional=templinst)_ZN29BasicPrimitiveDataInformationIt26UIntDataInformationMethodsItEEC1ERK7QStringP15DataInformation@Base 4:14.12.0
 (optional=templinst)_ZN29BasicPrimitiveDataInformationIt26UIntDataInformationMethodsItEEC1ERKS2_@Base 4:14.12.0
 (optional=templinst)_ZN29BasicPrimitiveDataInformationIt26UIntDataInformationMethodsItEEC2ERK7QStringP15DataInformation@Base 4:14.12.0
 (optional=templinst)_ZN29BasicPrimitiveDataInformationIt26UIntDataInformationMethodsItEEC2ERKS2_@Base 4:14.12.0
 (optional=templinst)_ZN29BasicPrimitiveDataInformationIt26UIntDataInformationMethodsItEED0Ev@Base 4:14.12.0
 (optional=templinst)_ZN29BasicPrimitiveDataInformationIt26UIntDataInformationMethodsItEED1Ev@Base 4:14.12.0
 (optional=templinst)_ZN29BasicPrimitiveDataInformationIt26UIntDataInformationMethodsItEED2Ev@Base 4:14.12.0
 (optional=templinst)_ZN29BasicPrimitiveDataInformationIx26SIntDataInformationMethodsIxEE7setDataERK8QVariantPN6Okteta22AbstractByteArrayModelEiyh@Base 4:14.12.0
 (optional=templinst)_ZN29BasicPrimitiveDataInformationIx26SIntDataInformationMethodsIxEE8readDataEPN6Okteta22AbstractByteArrayModelEiyPh@Base 4:14.12.0
 (optional=templinst)_ZN29BasicPrimitiveDataInformationIx26SIntDataInformationMethodsIxEE8setValueE17AllPrimitiveTypes@Base 4:14.12.0
 (optional=templinst)_ZN29BasicPrimitiveDataInformationIx26SIntDataInformationMethodsIxEEC1ERK7QStringP15DataInformation@Base 4:14.12.0
 (optional=templinst)_ZN29BasicPrimitiveDataInformationIx26SIntDataInformationMethodsIxEEC1ERKS2_@Base 4:14.12.0
 (optional=templinst)_ZN29BasicPrimitiveDataInformationIx26SIntDataInformationMethodsIxEEC2ERK7QStringP15DataInformation@Base 4:14.12.0
 (optional=templinst)_ZN29BasicPrimitiveDataInformationIx26SIntDataInformationMethodsIxEEC2ERKS2_@Base 4:14.12.0
 (optional=templinst)_ZN29BasicPrimitiveDataInformationIx26SIntDataInformationMethodsIxEED0Ev@Base 4:14.12.0
 (optional=templinst)_ZN29BasicPrimitiveDataInformationIx26SIntDataInformationMethodsIxEED1Ev@Base 4:14.12.0
 (optional=templinst)_ZN29BasicPrimitiveDataInformationIx26SIntDataInformationMethodsIxEED2Ev@Base 4:14.12.0
 (optional=templinst)_ZN29BasicPrimitiveDataInformationIy26BoolDataInformationMethodsIyEE7setDataERK8QVariantPN6Okteta22AbstractByteArrayModelEiyh@Base 4:14.12.0
 (optional=templinst)_ZN29BasicPrimitiveDataInformationIy26BoolDataInformationMethodsIyEE8readDataEPN6Okteta22AbstractByteArrayModelEiyPh@Base 4:14.12.0
 (optional=templinst)_ZN29BasicPrimitiveDataInformationIy26BoolDataInformationMethodsIyEE8setValueE17AllPrimitiveTypes@Base 4:14.12.0
 (optional=templinst)_ZN29BasicPrimitiveDataInformationIy26BoolDataInformationMethodsIyEEC1ERK7QStringP15DataInformation@Base 4:14.12.0
 (optional=templinst)_ZN29BasicPrimitiveDataInformationIy26BoolDataInformationMethodsIyEEC1ERKS2_@Base 4:14.12.0
 (optional=templinst)_ZN29BasicPrimitiveDataInformationIy26BoolDataInformationMethodsIyEEC2ERK7QStringP15DataInformation@Base 4:14.12.0
 (optional=templinst)_ZN29BasicPrimitiveDataInformationIy26BoolDataInformationMethodsIyEEC2ERKS2_@Base 4:14.12.0
 (optional=templinst)_ZN29BasicPrimitiveDataInformationIy26BoolDataInformationMethodsIyEED0Ev@Base 4:14.12.0
 (optional=templinst)_ZN29BasicPrimitiveDataInformationIy26BoolDataInformationMethodsIyEED1Ev@Base 4:14.12.0
 (optional=templinst)_ZN29BasicPrimitiveDataInformationIy26BoolDataInformationMethodsIyEED2Ev@Base 4:14.12.0
 (optional=templinst)_ZN29BasicPrimitiveDataInformationIy26UIntDataInformationMethodsIyEE7setDataERK8QVariantPN6Okteta22AbstractByteArrayModelEiyh@Base 4:14.12.0
 (optional=templinst)_ZN29BasicPrimitiveDataInformationIy26UIntDataInformationMethodsIyEE8readDataEPN6Okteta22AbstractByteArrayModelEiyPh@Base 4:14.12.0
 (optional=templinst)_ZN29BasicPrimitiveDataInformationIy26UIntDataInformationMethodsIyEE8setValueE17AllPrimitiveTypes@Base 4:14.12.0
 (optional=templinst)_ZN29BasicPrimitiveDataInformationIy26UIntDataInformationMethodsIyEEC1ERK7QStringP15DataInformation@Base 4:14.12.0
 (optional=templinst)_ZN29BasicPrimitiveDataInformationIy26UIntDataInformationMethodsIyEEC1ERKS2_@Base 4:14.12.0
 (optional=templinst)_ZN29BasicPrimitiveDataInformationIy26UIntDataInformationMethodsIyEEC2ERK7QStringP15DataInformation@Base 4:14.12.0
 (optional=templinst)_ZN29BasicPrimitiveDataInformationIy26UIntDataInformationMethodsIyEEC2ERKS2_@Base 4:14.12.0
 (optional=templinst)_ZN29BasicPrimitiveDataInformationIy26UIntDataInformationMethodsIyEED0Ev@Base 4:14.12.0
 (optional=templinst)_ZN29BasicPrimitiveDataInformationIy26UIntDataInformationMethodsIyEED1Ev@Base 4:14.12.0
 (optional=templinst)_ZN29BasicPrimitiveDataInformationIy26UIntDataInformationMethodsIyEED2Ev@Base 4:14.12.0
 _ZN29SignedBitfieldDataInformation8setValueE17AllPrimitiveTypes@Base 4:14.12.0
 _ZN29SignedBitfieldDataInformationD0Ev@Base 4:14.12.0
 _ZN29SignedBitfieldDataInformationD1Ev@Base 4:14.12.0
 _ZN29SignedBitfieldDataInformationD2Ev@Base 4:14.12.0
 _ZN30SingleElementOsdChildrenParser4nextEv@Base 4:14.12.0
 _ZN30SingleElementOsdChildrenParser7hasNextEv@Base 4:14.12.0
 _ZN30SingleElementOsdChildrenParserC1ERK13OsdParserInfo11QDomElement@Base 4:14.12.0
 _ZN30SingleElementOsdChildrenParserC2ERK13OsdParserInfo11QDomElement@Base 4:14.12.0
 _ZN30SingleElementOsdChildrenParserD0Ev@Base 4:14.12.0
 _ZN30SingleElementOsdChildrenParserD1Ev@Base 4:14.12.0
 _ZN30SingleElementOsdChildrenParserD2Ev@Base 4:14.12.0
 _ZN31AbstractBitfieldDataInformation7setDataERK8QVariantPN6Okteta22AbstractByteArrayModelEiyh@Base 4:14.12.0
 _ZN31AbstractBitfieldDataInformation8readDataEPN6Okteta22AbstractByteArrayModelEiyPh@Base 4:14.12.0
 _ZN31AbstractBitfieldDataInformation8setValueE17AllPrimitiveTypes@Base 4:14.12.0
 _ZN31AbstractBitfieldDataInformationC1ERK7QStringjP15DataInformation@Base 4:14.12.0
 _ZN31AbstractBitfieldDataInformationC1ERKS_@Base 4:14.12.0
 _ZN31AbstractBitfieldDataInformationC2ERK7QStringjP15DataInformation@Base 4:14.12.0
 _ZN31AbstractBitfieldDataInformationC2ERKS_@Base 4:14.12.0
 _ZN31AbstractBitfieldDataInformationD0Ev@Base 4:14.12.0
 _ZN31AbstractBitfieldDataInformationD1Ev@Base 4:14.12.0
 _ZN31AbstractBitfieldDataInformationD2Ev@Base 4:14.12.0
 _ZN31PrimitiveDataInformationWrapper7setDataERK8QVariantPN6Okteta22AbstractByteArrayModelEiyh@Base 4:14.12.0
 _ZN31PrimitiveDataInformationWrapper8readDataEPN6Okteta22AbstractByteArrayModelEiyPh@Base 4:14.12.0
 _ZN31PrimitiveDataInformationWrapper8setValueE17AllPrimitiveTypes@Base 4:14.12.0
 _ZN31PrimitiveDataInformationWrapperC1ERK7QStringP24PrimitiveDataInformationP15DataInformation@Base 4:14.12.0
 _ZN31PrimitiveDataInformationWrapperC1ERKS_@Base 4:14.12.0
 _ZN31PrimitiveDataInformationWrapperC2ERK7QStringP24PrimitiveDataInformationP15DataInformation@Base 4:14.12.0
 _ZN31PrimitiveDataInformationWrapperC2ERKS_@Base 4:14.12.0
 _ZN31UnsignedBitfieldDataInformationD0Ev@Base 4:14.12.0
 _ZN31UnsignedBitfieldDataInformationD1Ev@Base 4:14.12.0
 _ZN31UnsignedBitfieldDataInformationD2Ev@Base 4:14.12.0
 (optional=templinst)_ZN4QMapI17AllPrimitiveTypes7QStringE13detach_helperEv@Base 4:14.12.0
 (optional=templinst)_ZN5QHashIP15DataInformationP13SafeReferenceE11deleteNode2EPN9QHashData4NodeE@Base 4:14.12.0
 (optional=templinst)_ZN5QHashIP15DataInformationP13SafeReferenceE13detach_helperEv@Base 4:14.12.0
 (optional=templinst)_ZN5QHashIP15DataInformationP13SafeReferenceE13duplicateNodeEPN9QHashData4NodeEPv@Base 4:14.12.0
 (optional=templinst)_ZN5QHashIP15DataInformationP13SafeReferenceE5eraseENS4_8iteratorE@Base 4:14.12.0
 (optional=templinst|arch=arm64 armel mips mips64el mipsel powerpc ppc64 ppc64el s390x)_ZN5QHashIP15DataInformationP13SafeReferenceE6removeERKS1_@Base 4:15.08.0
 (optional=templinst)_ZN5QHashIPKN6Okteta22AbstractByteArrayModelEyE11deleteNode2EPN9QHashData4NodeE@Base 4:14.12.0
 (optional=templinst)_ZN5QHashIPKN6Okteta22AbstractByteArrayModelEyE13detach_helperEv@Base 4:14.12.0
 (optional=templinst)_ZN5QHashIPKN6Okteta22AbstractByteArrayModelEyE13duplicateNodeEPN9QHashData4NodeEPv@Base 4:14.12.0
 (optional=templinst|arch=arm64 armel mips mips64el mipsel powerpc ppc64 ppc64el s390x)_ZN5QHashIPKN6Okteta22AbstractByteArrayModelEyE6removeERKS3_@Base 4:15.08.0
 (optional=templinst)_ZN5QHashIi8QVariantE11deleteNode2EPN9QHashData4NodeE@Base 4:14.12.0
 (optional=templinst)_ZN5QHashIi8QVariantE13detach_helperEv@Base 4:14.12.0
 (optional=templinst)_ZN5QHashIi8QVariantE13duplicateNodeEPN9QHashData4NodeEPv@Base 4:14.12.0
 (optional=templinst)_ZN5QHashIi8QVariantE6removeERKi@Base 4:14.12.0
 (optional=templinst)_ZN5QHashIihE11deleteNode2EPN9QHashData4NodeE@Base 4:14.12.0
 (optional=templinst)_ZN5QHashIihE13duplicateNodeEPN9QHashData4NodeEPv@Base 4:14.12.0
 (optional=templinst)_ZN5QHashIihEixERKi@Base 4:14.12.0
 (optional=templinst)_ZN5QListI12QScriptValueE18detach_helper_growEii@Base 4:14.12.0
 (optional=templinst|arch=!arm64 !armel !mips !mips64el !mipsel !powerpc !ppc64 !ppc64el !s390x)_ZN5QListI12QScriptValueED1Ev@Base 4:15.08.0
 (optional=templinst|arch=!arm64 !armel !mips !mips64el !mipsel !powerpc !ppc64 !ppc64el !s390x)_ZN5QListI12QScriptValueED2Ev@Base 4:15.08.0
 (optional=templinst)_ZN5QListIN19KCoreConfigSkeleton8ItemEnum6ChoiceEE18detach_helper_growEii@Base 4:14.12.0
 (optional=templinst)_ZN5QListIN19KCoreConfigSkeleton8ItemEnum6ChoiceEE6appendERKS2_@Base 4:14.12.0
 (optional=templinst)_ZN5QListIP22PointerDataInformationE13detach_helperEi@Base 4:15.08.0
 (optional=templinst)_ZN5QListIP22PointerDataInformationE18detach_helper_growEii@Base 4:14.12.0
 _ZN6Kasten10FilterTool11qt_metacallEN11QMetaObject4CallEiPPv@Base 4:14.12.0
 _ZN6Kasten10FilterTool11qt_metacastEPKc@Base 4:14.12.0
 _ZN6Kasten10FilterTool12parameterSetEi@Base 4:14.12.0
 _ZN6Kasten10FilterTool14setTargetModelEPNS_13AbstractModelE@Base 4:14.12.0
 _ZN6Kasten10FilterTool16charCodecChangedERK7QString@Base 4:14.12.0
 _ZN6Kasten10FilterTool16staticMetaObjectE@Base 4:14.12.0
 _ZN6Kasten10FilterTool18onApplyableChangedEv@Base 4:14.12.0
 _ZN6Kasten10FilterTool19hasWriteableChangedEb@Base 4:14.12.0
 _ZN6Kasten10FilterToolC1Ev@Base 4:14.12.0
 _ZN6Kasten10FilterToolC2Ev@Base 4:14.12.0
 _ZN6Kasten10FilterToolD0Ev@Base 4:14.12.0
 _ZN6Kasten10FilterToolD1Ev@Base 4:14.12.0
 _ZN6Kasten10FilterToolD2Ev@Base 4:14.12.0
 _ZN6Kasten10StructTool10headerDataEii@Base 4:14.12.0
 _ZN6Kasten10StructTool10updateDataERKN6Okteta22ArrayChangeMetricsListE@Base 4:14.12.0
 _ZN6Kasten10StructTool11dataChangedEiPv@Base 4:14.12.0
 _ZN6Kasten10StructTool11dataClearedEv@Base 4:14.12.0
 _ZN6Kasten10StructTool11qt_metacallEN11QMetaObject4CallEiPPv@Base 4:14.12.0
 _ZN6Kasten10StructTool11qt_metacastEPKc@Base 4:14.12.0
 _ZN6Kasten10StructTool12addChildItemEP23TopLevelDataInformation@Base 4:14.12.0
 _ZN6Kasten10StructTool12setByteOrderEN8QSysInfo6EndianE@Base 4:14.12.0
 _ZN6Kasten10StructTool12setByteOrderEi@Base 4:14.12.0
 _ZN6Kasten10StructTool12startAddressEPK23TopLevelDataInformation@Base 4:14.12.0
 _ZN6Kasten10StructTool13lockStructureERK11QModelIndex@Base 4:14.12.0
 _ZN6Kasten10StructTool14setTargetModelEPNS_13AbstractModelE@Base 4:14.12.0
 _ZN6Kasten10StructTool15childrenRemovedEPK15DataInformationjj@Base 4:14.12.0
 _ZN6Kasten10StructTool15unlockStructureERK11QModelIndex@Base 4:14.12.0
 _ZN6Kasten10StructTool16byteOrderChangedEv@Base 4:14.12.0
 _ZN6Kasten10StructTool16childrenInsertedEPK15DataInformationjj@Base 4:14.12.0
 _ZN6Kasten10StructTool16onContentsChangeERKN6Okteta22ArrayChangeMetricsListE@Base 4:14.12.0
 _ZN6Kasten10StructTool16staticMetaObjectE@Base 4:14.12.0
 _ZN6Kasten10StructTool18cursorIndexChangedEv@Base 4:14.12.0
 _ZN6Kasten10StructTool18onByteOrderChangedEv@Base 4:14.12.0
 _ZN6Kasten10StructTool21byteArrayModelChangedEPN6Okteta22AbstractByteArrayModelE@Base 4:14.12.0
 _ZN6Kasten10StructTool21validateAllStructuresEv@Base 4:14.12.0
 _ZN6Kasten10StructTool22onChildItemDataChangedEv@Base 4:14.12.0
 _ZN6Kasten10StructTool22onCursorPositionChangeEi@Base 4:14.12.0
 _ZN6Kasten10StructTool24childrenAboutToBeRemovedEP15DataInformationjj@Base 4:14.12.0
 _ZN6Kasten10StructTool25childrenAboutToBeInsertedEP15DataInformationjj@Base 4:14.12.0
 _ZN6Kasten10StructTool27setSelectedStructuresInViewEv@Base 4:14.12.0
 _ZN6Kasten10StructTool4markERK11QModelIndex@Base 4:14.12.0
 _ZN6Kasten10StructTool6unmarkEv@Base 4:14.12.0
 _ZN6Kasten10StructTool7setDataERK8QVariantiP15DataInformationj@Base 4:14.12.0
 _ZN6Kasten10StructToolC1Ev@Base 4:14.12.0
 _ZN6Kasten10StructToolC2Ev@Base 4:14.12.0
 _ZN6Kasten10StructToolD0Ev@Base 4:14.12.0
 _ZN6Kasten10StructToolD1Ev@Base 4:14.12.0
 _ZN6Kasten10StructToolD2Ev@Base 4:14.12.0
 _ZN6Kasten12ChecksumTool11qt_metacallEN11QMetaObject4CallEiPPv@Base 4:14.12.0
 _ZN6Kasten12ChecksumTool11qt_metacastEPKc@Base 4:14.12.0
 _ZN6Kasten12ChecksumTool12parameterSetEv@Base 4:14.12.0
 _ZN6Kasten12ChecksumTool12setAlgorithmEi@Base 4:14.12.0
 _ZN6Kasten12ChecksumTool13checkUptoDateEv@Base 4:14.12.0
 _ZN6Kasten12ChecksumTool14setTargetModelEPNS_13AbstractModelE@Base 4:14.12.0
 _ZN6Kasten12ChecksumTool15checksumChangedERK7QString@Base 4:14.12.0
 _ZN6Kasten12ChecksumTool15onSourceChangedEv@Base 4:14.12.0
 _ZN6Kasten12ChecksumTool15resetSourceToolEv@Base 4:14.12.0
 _ZN6Kasten12ChecksumTool15uptodateChangedEb@Base 4:14.12.0
 _ZN6Kasten12ChecksumTool16staticMetaObjectE@Base 4:14.12.0
 _ZN6Kasten12ChecksumTool17calculateChecksumEv@Base 4:14.12.0
 _ZN6Kasten12ChecksumTool17onSourceDestroyedEv@Base 4:14.12.0
 _ZN6Kasten12ChecksumTool18isApplyableChangedEb@Base 4:14.12.0
 _ZN6Kasten12ChecksumTool18onSelectionChangedEv@Base 4:14.12.0
 _ZN6Kasten12ChecksumToolC1Ev@Base 4:14.12.0
 _ZN6Kasten12ChecksumToolC2Ev@Base 4:14.12.0
 _ZN6Kasten12ChecksumToolD0Ev@Base 4:14.12.0
 _ZN6Kasten12ChecksumToolD1Ev@Base 4:14.12.0
 _ZN6Kasten12ChecksumToolD2Ev@Base 4:14.12.0
 _ZN6Kasten12InfoToolViewC1EPNS_8InfoToolE@Base 4:14.12.0
 _ZN6Kasten12InfoToolViewC2EPNS_8InfoToolE@Base 4:14.12.0
 _ZN6Kasten12InfoToolViewD0Ev@Base 4:14.12.0
 _ZN6Kasten12InfoToolViewD1Ev@Base 4:14.12.0
 _ZN6Kasten12InfoToolViewD2Ev@Base 4:14.12.0
 _ZN6Kasten13BookmarksTool11qt_metacallEN11QMetaObject4CallEiPPv@Base 4:14.12.0
 _ZN6Kasten13BookmarksTool11qt_metacastEPKc@Base 4:14.12.0
 _ZN6Kasten13BookmarksTool12gotoBookmarkERKN6Okteta8BookmarkE@Base 4:14.12.0
 _ZN6Kasten13BookmarksTool14bookmarksAddedERK5QListIN6Okteta8BookmarkEE@Base 4:14.12.0
 _ZN6Kasten13BookmarksTool14createBookmarkEv@Base 4:14.12.0
 _ZN6Kasten13BookmarksTool14setTargetModelEPNS_13AbstractModelE@Base 4:14.12.0
 _ZN6Kasten13BookmarksTool15deleteBookmarksERK5QListIN6Okteta8BookmarkEE@Base 4:14.12.0
 _ZN6Kasten13BookmarksTool15setBookmarkNameEjRK7QString@Base 4:14.12.0
 _ZN6Kasten13BookmarksTool16bookmarksRemovedERK5QListIN6Okteta8BookmarkEE@Base 4:14.12.0
 _ZN6Kasten13BookmarksTool16staticMetaObjectE@Base 4:14.12.0
 _ZN6Kasten13BookmarksTool17bookmarksModifiedERK5QListIiE@Base 4:14.12.0
 _ZN6Kasten13BookmarksTool19hasBookmarksChangedEb@Base 4:14.12.0
 _ZN6Kasten13BookmarksTool19offsetCodingChangedEi@Base 4:14.12.0
 _ZN6Kasten13BookmarksTool19onBookmarksModifiedEv@Base 4:14.12.0
 _ZN6Kasten13BookmarksTool23onCursorPositionChangedEi@Base 4:14.12.0
 _ZN6Kasten13BookmarksTool24canCreateBookmarkChangedEb@Base 4:14.12.0
 _ZN6Kasten13BookmarksToolC1Ev@Base 4:14.12.0
 _ZN6Kasten13BookmarksToolC2Ev@Base 4:14.12.0
 _ZN6Kasten13BookmarksToolD0Ev@Base 4:14.12.0
 _ZN6Kasten13BookmarksToolD1Ev@Base 4:14.12.0
 _ZN6Kasten13BookmarksToolD2Ev@Base 4:14.12.0
 _ZN6Kasten13ByteTableTool11qt_metacallEN11QMetaObject4CallEiPPv@Base 4:14.12.0
 _ZN6Kasten13ByteTableTool11qt_metacastEPKc@Base 4:14.12.0
 _ZN6Kasten13ByteTableTool14setTargetModelEPNS_13AbstractModelE@Base 4:14.12.0
 _ZN6Kasten13ByteTableTool16staticMetaObjectE@Base 4:14.12.0
 _ZN6Kasten13ByteTableTool17onReadOnlyChangedEb@Base 4:14.12.0
 _ZN6Kasten13ByteTableTool19hasWriteableChangedEb@Base 4:14.12.0
 _ZN6Kasten13ByteTableTool6insertEhi@Base 4:14.12.0
 _ZN6Kasten13ByteTableToolC1Ev@Base 4:14.12.0
 _ZN6Kasten13ByteTableToolC2Ev@Base 4:14.12.0
 _ZN6Kasten13ByteTableToolD0Ev@Base 4:14.12.0
 _ZN6Kasten13ByteTableToolD1Ev@Base 4:14.12.0
 _ZN6Kasten13ByteTableToolD2Ev@Base 4:14.12.0
 _ZN6Kasten14FilterToolViewC1EPNS_10FilterToolE@Base 4:14.12.0
 _ZN6Kasten14FilterToolViewC2EPNS_10FilterToolE@Base 4:14.12.0
 _ZN6Kasten14FilterToolViewD0Ev@Base 4:14.12.0
 _ZN6Kasten14FilterToolViewD1Ev@Base 4:14.12.0
 _ZN6Kasten14FilterToolViewD2Ev@Base 4:14.12.0
 _ZN6Kasten14PODDecoderTool10updateDataEv@Base 4:14.12.0
 _ZN6Kasten14PODDecoderTool11dataChangedEv@Base 4:14.12.0
 _ZN6Kasten14PODDecoderTool11qt_metacallEN11QMetaObject4CallEiPPv@Base 4:14.12.0
 _ZN6Kasten14PODDecoderTool11qt_metacastEPKc@Base 4:14.12.0
 _ZN6Kasten14PODDecoderTool12setByteOrderEi@Base 4:14.12.0
 _ZN6Kasten14PODDecoderTool12setupDecoderEv@Base 4:14.12.0
 _ZN6Kasten14PODDecoderTool14setTargetModelEPNS_13AbstractModelE@Base 4:14.12.0
 _ZN6Kasten14PODDecoderTool15readOnlyChangedEb@Base 4:14.12.0
 _ZN6Kasten14PODDecoderTool16onContentsChangeEv@Base 4:14.12.0
 _ZN6Kasten14PODDecoderTool16setUnsignedAsHexEb@Base 4:14.12.0
 _ZN6Kasten14PODDecoderTool16staticMetaObjectE@Base 4:14.12.0
 _ZN6Kasten14PODDecoderTool17onCharCodecChangeERK7QString@Base 4:14.12.0
 _ZN6Kasten14PODDecoderTool17onReadOnlyChangedEv@Base 4:14.12.0
 _ZN6Kasten14PODDecoderTool18isApplyableChangedEb@Base 4:14.12.0
 _ZN6Kasten14PODDecoderTool22onCursorPositionChangeEi@Base 4:14.12.0
 _ZN6Kasten14PODDecoderTool22setDifferentSizeDialogEPNS_27AbstractDifferentSizeDialogE@Base 4:14.12.0
 _ZN6Kasten14PODDecoderTool7markPODEi@Base 4:14.12.0
 _ZN6Kasten14PODDecoderTool7setDataERK8QVarianti@Base 4:14.12.0
 _ZN6Kasten14PODDecoderTool9unmarkPODEv@Base 4:14.12.0
 _ZN6Kasten14PODDecoderToolC1Ev@Base 4:14.12.0
 _ZN6Kasten14PODDecoderToolC2Ev@Base 4:14.12.0
 _ZN6Kasten14PODDecoderToolD0Ev@Base 4:14.12.0
 _ZN6Kasten14PODDecoderToolD1Ev@Base 4:14.12.0
 _ZN6Kasten14PODDecoderToolD2Ev@Base 4:14.12.0
 _ZN6Kasten14StructToolViewC1EPNS_10StructToolE@Base 4:14.12.0
 _ZN6Kasten14StructToolViewC2EPNS_10StructToolE@Base 4:14.12.0
 _ZN6Kasten14StructToolViewD0Ev@Base 4:14.12.0
 _ZN6Kasten14StructToolViewD1Ev@Base 4:14.12.0
 _ZN6Kasten14StructToolViewD2Ev@Base 4:14.12.0
 _ZN6Kasten15InfoToolFactory6createEv@Base 4:14.12.0
 _ZN6Kasten15InfoToolFactoryC1Ev@Base 4:14.12.0
 _ZN6Kasten15InfoToolFactoryC2Ev@Base 4:14.12.0
 _ZN6Kasten15InfoToolFactoryD0Ev@Base 4:14.12.0
 _ZN6Kasten15InfoToolFactoryD1Ev@Base 4:14.12.0
 _ZN6Kasten15InfoToolFactoryD2Ev@Base 4:14.12.0
 _ZN6Kasten15PrintController11qt_metacallEN11QMetaObject4CallEiPPv@Base 4:14.12.0
 _ZN6Kasten15PrintController11qt_metacastEPKc@Base 4:14.12.0
 _ZN6Kasten15PrintController14setTargetModelEPNS_13AbstractModelE@Base 4:14.12.0
 _ZN6Kasten15PrintController16staticMetaObjectE@Base 4:14.12.0
 _ZN6Kasten15PrintController5printEv@Base 4:14.12.0
 _ZN6Kasten15PrintControllerC1EP13KXMLGUIClient@Base 4:14.12.0
 _ZN6Kasten15PrintControllerC2EP13KXMLGUIClient@Base 4:14.12.0
 _ZN6Kasten15PrintControllerD0Ev@Base 4:14.12.0
 _ZN6Kasten15PrintControllerD1Ev@Base 4:14.12.0
 _ZN6Kasten15PrintControllerD2Ev@Base 4:14.12.0
 _ZN6Kasten16ChecksumToolViewC1EPNS_12ChecksumToolE@Base 4:14.12.0
 _ZN6Kasten16ChecksumToolViewC2EPNS_12ChecksumToolE@Base 4:14.12.0
 _ZN6Kasten16ChecksumToolViewD0Ev@Base 4:14.12.0
 _ZN6Kasten16ChecksumToolViewD1Ev@Base 4:14.12.0
 _ZN6Kasten16ChecksumToolViewD2Ev@Base 4:14.12.0
 _ZN6Kasten16DocumentInfoTool11qt_metacallEN11QMetaObject4CallEiPPv@Base 4:14.12.0
 _ZN6Kasten16DocumentInfoTool11qt_metacastEPKc@Base 4:14.12.0
 _ZN6Kasten16DocumentInfoTool12onUrlChangedERK4QUrl@Base 4:14.12.0
 _ZN6Kasten16DocumentInfoTool14setTargetModelEPNS_13AbstractModelE@Base 4:14.12.0
 _ZN6Kasten16DocumentInfoTool14updateMimeTypeEv@Base 4:14.12.0
 _ZN6Kasten16DocumentInfoTool15locationChangedERK7QString@Base 4:14.12.0
 _ZN6Kasten16DocumentInfoTool16staticMetaObjectE@Base 4:14.12.0
 _ZN6Kasten16DocumentInfoTool17onContentsChangedEv@Base 4:14.12.0
 _ZN6Kasten16DocumentInfoTool19documentSizeChangedEi@Base 4:14.12.0
 _ZN6Kasten16DocumentInfoTool20documentTitleChangedERK7QString@Base 4:14.12.0
 _ZN6Kasten16DocumentInfoTool21onSynchronizerChangedEPNS_25AbstractModelSynchronizerE@Base 4:14.12.0
 _ZN6Kasten16DocumentInfoTool23documentMimeTypeChangedERK9QMimeType@Base 4:14.12.0
 _ZN6Kasten16DocumentInfoToolC1EPNS_19DocumentSyncManagerE@Base 4:14.12.0
 _ZN6Kasten16DocumentInfoToolC2EPNS_19DocumentSyncManagerE@Base 4:14.12.0
 _ZN6Kasten16DocumentInfoToolD0Ev@Base 4:14.12.0
 _ZN6Kasten16DocumentInfoToolD1Ev@Base 4:14.12.0
 _ZN6Kasten16DocumentInfoToolD2Ev@Base 4:14.12.0
 _ZN6Kasten16SearchController10showDialogENS_14KFindDirectionE@Base 4:14.12.0
 _ZN6Kasten16SearchController11qt_metacallEN11QMetaObject4CallEiPPv@Base 4:14.12.0
 _ZN6Kasten16SearchController11qt_metacastEPKc@Base 4:14.12.0
 _ZN6Kasten16SearchController12findPreviousEv@Base 4:14.12.0
 _ZN6Kasten16SearchController14onDataNotFoundEv@Base 4:14.12.0
 _ZN6Kasten16SearchController14setTargetModelEPNS_13AbstractModelE@Base 4:14.12.0
 _ZN6Kasten16SearchController16staticMetaObjectE@Base 4:14.12.0
 _ZN6Kasten16SearchController4findEv@Base 4:14.12.0
 _ZN6Kasten16SearchController8findNextEv@Base 4:14.12.0
 _ZN6Kasten16SearchControllerC1EP13KXMLGUIClientP7QWidget@Base 4:14.12.0
 _ZN6Kasten16SearchControllerC2EP13KXMLGUIClientP7QWidget@Base 4:14.12.0
 _ZN6Kasten16SearchControllerD0Ev@Base 4:14.12.0
 _ZN6Kasten16SearchControllerD1Ev@Base 4:14.12.0
 _ZN6Kasten16SearchControllerD2Ev@Base 4:14.12.0
 _ZN6Kasten17BookmarksToolViewC1EPNS_13BookmarksToolE@Base 4:14.12.0
 _ZN6Kasten17BookmarksToolViewC2EPNS_13BookmarksToolE@Base 4:14.12.0
 _ZN6Kasten17BookmarksToolViewD0Ev@Base 4:14.12.0
 _ZN6Kasten17BookmarksToolViewD1Ev@Base 4:14.12.0
 _ZN6Kasten17BookmarksToolViewD2Ev@Base 4:14.12.0
 _ZN6Kasten17ByteTableToolViewC1EPNS_13ByteTableToolE@Base 4:14.12.0
 _ZN6Kasten17ByteTableToolViewC2EPNS_13ByteTableToolE@Base 4:14.12.0
 _ZN6Kasten17ByteTableToolViewD0Ev@Base 4:14.12.0
 _ZN6Kasten17ByteTableToolViewD1Ev@Base 4:14.12.0
 _ZN6Kasten17ByteTableToolViewD2Ev@Base 4:14.12.0
 _ZN6Kasten17FilterToolFactory6createEv@Base 4:14.12.0
 _ZN6Kasten17FilterToolFactoryC1Ev@Base 4:14.12.0
 _ZN6Kasten17FilterToolFactoryC2Ev@Base 4:14.12.0
 _ZN6Kasten17FilterToolFactoryD0Ev@Base 4:14.12.0
 _ZN6Kasten17FilterToolFactoryD1Ev@Base 4:14.12.0
 _ZN6Kasten17FilterToolFactoryD2Ev@Base 4:14.12.0
 _ZN6Kasten17ReplaceController10onFinishedEbi@Base 4:14.12.0
 _ZN6Kasten17ReplaceController11qt_metacallEN11QMetaObject4CallEiPPv@Base 4:14.12.0
 _ZN6Kasten17ReplaceController11qt_metacastEPKc@Base 4:14.12.0
 _ZN6Kasten17ReplaceController14setTargetModelEPNS_13AbstractModelE@Base 4:14.12.0
 _ZN6Kasten17ReplaceController16staticMetaObjectE@Base 4:14.12.0
 _ZN6Kasten17ReplaceController7replaceEv@Base 4:14.12.0
 _ZN6Kasten17ReplaceControllerC1EP13KXMLGUIClientP7QWidget@Base 4:14.12.0
 _ZN6Kasten17ReplaceControllerC2EP13KXMLGUIClientP7QWidget@Base 4:14.12.0
 _ZN6Kasten17ReplaceControllerD0Ev@Base 4:14.12.0
 _ZN6Kasten17ReplaceControllerD1Ev@Base 4:14.12.0
 _ZN6Kasten17ReplaceControllerD2Ev@Base 4:14.12.0
 _ZN6Kasten18PODDecoderToolViewC1EPNS_14PODDecoderToolE@Base 4:14.12.0
 _ZN6Kasten18PODDecoderToolViewC2EPNS_14PODDecoderToolE@Base 4:14.12.0
 _ZN6Kasten18PODDecoderToolViewD0Ev@Base 4:14.12.0
 _ZN6Kasten18PODDecoderToolViewD1Ev@Base 4:14.12.0
 _ZN6Kasten18PODDecoderToolViewD2Ev@Base 4:14.12.0
 _ZN6Kasten18StringsExtractTool10markStringEi@Base 4:14.12.0
 _ZN6Kasten18StringsExtractTool11qt_metacallEN11QMetaObject4CallEiPPv@Base 4:14.12.0
 _ZN6Kasten18StringsExtractTool11qt_metacastEPKc@Base 4:14.12.0
 _ZN6Kasten18StringsExtractTool12setMinLengthEi@Base 4:14.12.0
 _ZN6Kasten18StringsExtractTool12unmarkStringEv@Base 4:14.12.0
 _ZN6Kasten18StringsExtractTool13checkUptoDateEv@Base 4:14.12.0
 _ZN6Kasten18StringsExtractTool14extractStringsEv@Base 4:14.12.0
 _ZN6Kasten18StringsExtractTool14setTargetModelEPNS_13AbstractModelE@Base 4:14.12.0
 _ZN6Kasten18StringsExtractTool15onSourceChangedEv@Base 4:14.12.0
 _ZN6Kasten18StringsExtractTool15uptodateChangedEb@Base 4:14.12.0
 _ZN6Kasten18StringsExtractTool16staticMetaObjectE@Base 4:14.12.0
 _ZN6Kasten18StringsExtractTool17onSourceDestroyedEv@Base 4:14.12.0
 _ZN6Kasten18StringsExtractTool18isApplyableChangedEb@Base 4:14.12.0
 _ZN6Kasten18StringsExtractTool18onSelectionChangedEv@Base 4:14.12.0
 _ZN6Kasten18StringsExtractTool19offsetCodingChangedEi@Base 4:14.12.0
 _ZN6Kasten18StringsExtractTool21onSourceViewDestroyedEv@Base 4:14.12.0
 _ZN6Kasten18StringsExtractTool25canHighlightStringChangedEb@Base 4:14.12.0
 _ZN6Kasten18StringsExtractToolC1Ev@Base 4:14.12.0
 _ZN6Kasten18StringsExtractToolC2Ev@Base 4:14.12.0
 _ZN6Kasten18StringsExtractToolD0Ev@Base 4:14.12.0
 _ZN6Kasten18StringsExtractToolD1Ev@Base 4:14.12.0
 _ZN6Kasten18StringsExtractToolD2Ev@Base 4:14.12.0
 _ZN6Kasten18ViewModeController11qt_metacallEN11QMetaObject4CallEiPPv@Base 4:14.12.0
 _ZN6Kasten18ViewModeController11qt_metacastEPKc@Base 4:14.12.0
 _ZN6Kasten18ViewModeController11setViewModeEi@Base 4:14.12.0
 _ZN6Kasten18ViewModeController14setTargetModelEPNS_13AbstractModelE@Base 4:14.12.0
 _ZN6Kasten18ViewModeController16staticMetaObjectE@Base 4:14.12.0
 _ZN6Kasten18ViewModeControllerC1EP13KXMLGUIClient@Base 4:14.12.0
 _ZN6Kasten18ViewModeControllerC2EP13KXMLGUIClient@Base 4:14.12.0
 _ZN6Kasten19BookmarksController11qt_metacallEN11QMetaObject4CallEiPPv@Base 4:14.12.0
 _ZN6Kasten19BookmarksController11qt_metacastEPKc@Base 4:14.12.0
 _ZN6Kasten19BookmarksController14createBookmarkEv@Base 4:14.12.0
 _ZN6Kasten19BookmarksController14deleteBookmarkEv@Base 4:14.12.0
 _ZN6Kasten19BookmarksController14setTargetModelEPNS_13AbstractModelE@Base 4:14.12.0
 _ZN6Kasten19BookmarksController15updateBookmarksEv@Base 4:14.12.0
 _ZN6Kasten19BookmarksController16gotoNextBookmarkEv@Base 4:14.12.0
 _ZN6Kasten19BookmarksController16onBookmarksAddedERK5QListIN6Okteta8BookmarkEE@Base 4:14.12.0
 _ZN6Kasten19BookmarksController16staticMetaObjectE@Base 4:14.12.0
 _ZN6Kasten19BookmarksController18deleteAllBookmarksEv@Base 4:14.12.0
 _ZN6Kasten19BookmarksController18onBookmarksRemovedERK5QListIN6Okteta8BookmarkEE@Base 4:14.12.0
 _ZN6Kasten19BookmarksController19onBookmarkTriggeredEP7QAction@Base 4:14.12.0
 _ZN6Kasten19BookmarksController20gotoPreviousBookmarkEv@Base 4:14.12.0
 _ZN6Kasten19BookmarksController23onCursorPositionChangedEi@Base 4:14.12.0
 _ZN6Kasten19BookmarksControllerC1EP13KXMLGUIClient@Base 4:14.12.0
 _ZN6Kasten19BookmarksControllerC2EP13KXMLGUIClient@Base 4:14.12.0
 _ZN6Kasten19BookmarksControllerD0Ev@Base 4:14.12.0
 _ZN6Kasten19BookmarksControllerD1Ev@Base 4:14.12.0
 _ZN6Kasten19BookmarksControllerD2Ev@Base 4:14.12.0
 _ZN6Kasten19ChecksumToolFactory6createEv@Base 4:14.12.0
 _ZN6Kasten19ChecksumToolFactoryC1Ev@Base 4:14.12.0
 _ZN6Kasten19ChecksumToolFactoryC2Ev@Base 4:14.12.0
 _ZN6Kasten19ChecksumToolFactoryD0Ev@Base 4:14.12.0
 _ZN6Kasten19ChecksumToolFactoryD1Ev@Base 4:14.12.0
 _ZN6Kasten19ChecksumToolFactoryD2Ev@Base 4:14.12.0
 _ZN6Kasten19InfoToolViewFactory6createEPNS_12AbstractToolE@Base 4:14.12.0
 _ZN6Kasten19InfoToolViewFactoryC1Ev@Base 4:14.12.0
 _ZN6Kasten19InfoToolViewFactoryC2Ev@Base 4:14.12.0
 _ZN6Kasten19InfoToolViewFactoryD0Ev@Base 4:14.12.0
 _ZN6Kasten19InfoToolViewFactoryD1Ev@Base 4:14.12.0
 _ZN6Kasten19InfoToolViewFactoryD2Ev@Base 4:14.12.0
 _ZN6Kasten20BookmarksToolFactory6createEv@Base 4:14.12.0
 _ZN6Kasten20BookmarksToolFactoryC1Ev@Base 4:14.12.0
 _ZN6Kasten20BookmarksToolFactoryC2Ev@Base 4:14.12.0
 _ZN6Kasten20BookmarksToolFactoryD0Ev@Base 4:14.12.0
 _ZN6Kasten20BookmarksToolFactoryD1Ev@Base 4:14.12.0
 _ZN6Kasten20BookmarksToolFactoryD2Ev@Base 4:14.12.0
 _ZN6Kasten20ByteTableToolFactory6createEv@Base 4:14.12.0
 _ZN6Kasten20ByteTableToolFactoryC1Ev@Base 4:14.12.0
 _ZN6Kasten20ByteTableToolFactoryC2Ev@Base 4:14.12.0
 _ZN6Kasten20ByteTableToolFactoryD0Ev@Base 4:14.12.0
 _ZN6Kasten20ByteTableToolFactoryD1Ev@Base 4:14.12.0
 _ZN6Kasten20ByteTableToolFactoryD2Ev@Base 4:14.12.0
 _ZN6Kasten20DocumentInfoToolViewC1EPNS_16DocumentInfoToolE@Base 4:14.12.0
 _ZN6Kasten20DocumentInfoToolViewC2EPNS_16DocumentInfoToolE@Base 4:14.12.0
 _ZN6Kasten20DocumentInfoToolViewD0Ev@Base 4:14.12.0
 _ZN6Kasten20DocumentInfoToolViewD1Ev@Base 4:14.12.0
 _ZN6Kasten20DocumentInfoToolViewD2Ev@Base 4:14.12.0
 _ZN6Kasten20GotoOffsetController10gotoOffsetEv@Base 4:14.12.0
 _ZN6Kasten20GotoOffsetController11qt_metacallEN11QMetaObject4CallEiPPv@Base 4:14.12.0
 _ZN6Kasten20GotoOffsetController11qt_metacastEPKc@Base 4:14.12.0
 _ZN6Kasten20GotoOffsetController14setTargetModelEPNS_13AbstractModelE@Base 4:14.12.0
 _ZN6Kasten20GotoOffsetController16staticMetaObjectE@Base 4:14.12.0
 _ZN6Kasten20GotoOffsetControllerC1EPNS_2If18ToolInlineViewableEP13KXMLGUIClient@Base 4:14.12.0
 _ZN6Kasten20GotoOffsetControllerC2EPNS_2If18ToolInlineViewableEP13KXMLGUIClient@Base 4:14.12.0
 _ZN6Kasten20GotoOffsetControllerD0Ev@Base 4:14.12.0
 _ZN6Kasten20GotoOffsetControllerD1Ev@Base 4:14.12.0
 _ZN6Kasten20GotoOffsetControllerD2Ev@Base 4:14.12.0
 _ZN6Kasten20ViewConfigController11qt_metacallEN11QMetaObject4CallEiPPv@Base 4:14.12.0
 _ZN6Kasten20ViewConfigController11qt_metacastEPKc@Base 4:14.12.0
 _ZN6Kasten20ViewConfigController13setCharCodingEi@Base 4:14.12.0
 _ZN6Kasten20ViewConfigController14setLayoutStyleEi@Base 4:14.12.0
 _ZN6Kasten20ViewConfigController14setTargetModelEPNS_13AbstractModelE@Base 4:14.12.0
 _ZN6Kasten20ViewConfigController14setValueCodingEi@Base 4:14.12.0
 _ZN6Kasten20ViewConfigController15setBytesPerLineEv@Base 4:14.12.0
 _ZN6Kasten20ViewConfigController15setOffsetCodingEi@Base 4:14.12.0
 _ZN6Kasten20ViewConfigController16setBytesPerGroupEv@Base 4:14.12.0
 _ZN6Kasten20ViewConfigController16staticMetaObjectE@Base 4:14.12.0
 _ZN6Kasten20ViewConfigController18onCharCodecChangedERK7QString@Base 4:14.12.0
 _ZN6Kasten20ViewConfigController18toggleOffsetColumnEb@Base 4:14.12.0
 _ZN6Kasten20ViewConfigController19setShowsNonprintingEb@Base 4:14.12.0
 _ZN6Kasten20ViewConfigController20onLayoutStyleChangedEi@Base 4:14.12.0
 _ZN6Kasten20ViewConfigController20onValueCodingChangedEi@Base 4:14.12.0
 _ZN6Kasten20ViewConfigController21onOffsetCodingChangedEi@Base 4:14.12.0
 _ZN6Kasten20ViewConfigController22toggleValueCharColumnsEi@Base 4:14.12.0
 _ZN6Kasten20ViewConfigController25onShowsNonprintingChangedEb@Base 4:14.12.0
 _ZN6Kasten20ViewConfigController28onOffsetColumnVisibleChangedEb@Base 4:14.12.0
 _ZN6Kasten20ViewConfigController32onVisibleByteArrayCodingsChangedEi@Base 4:14.12.0
 _ZN6Kasten20ViewConfigControllerC1EP13KXMLGUIClient@Base 4:14.12.0
 _ZN6Kasten20ViewConfigControllerC2EP13KXMLGUIClient@Base 4:14.12.0
 _ZN6Kasten20ViewStatusController11qt_metacallEN11QMetaObject4CallEiPPv@Base 4:14.12.0
 _ZN6Kasten20ViewStatusController11qt_metacastEPKc@Base 4:14.12.0
 _ZN6Kasten20ViewStatusController13setCharCodingEi@Base 4:14.12.0
 _ZN6Kasten20ViewStatusController14setTargetModelEPNS_13AbstractModelE@Base 4:14.12.0
 _ZN6Kasten20ViewStatusController14setValueCodingEi@Base 4:14.12.0
 _ZN6Kasten20ViewStatusController16setOverwriteModeEb@Base 4:14.12.0
 _ZN6Kasten20ViewStatusController16staticMetaObjectE@Base 4:14.12.0
 _ZN6Kasten20ViewStatusController18onCharCodecChangedERK7QString@Base 4:14.12.0
 _ZN6Kasten20ViewStatusController20onValueCodingChangedEi@Base 4:14.12.0
 _ZN6Kasten20ViewStatusController21onOffsetCodingChangedEi@Base 4:14.12.0
 _ZN6Kasten20ViewStatusController21onSelectedDataChangedEPKNS_22AbstractModelSelectionE@Base 4:14.12.0
 _ZN6Kasten20ViewStatusController23onCursorPositionChangedEi@Base 4:14.12.0
 _ZN6Kasten20ViewStatusController9fixWidthsEi@Base 4:14.12.0
 _ZN6Kasten20ViewStatusControllerC1EPNS_9StatusBarE@Base 4:14.12.0
 _ZN6Kasten20ViewStatusControllerC2EPNS_9StatusBarE@Base 4:14.12.0
 _ZN6Kasten21CharsetConversionTool11qt_metacallEN11QMetaObject4CallEiPPv@Base 4:14.12.0
 _ZN6Kasten21CharsetConversionTool11qt_metacastEPKc@Base 4:14.12.0
 _ZN6Kasten21CharsetConversionTool12convertCharsEv@Base 4:14.12.0
 _ZN6Kasten21CharsetConversionTool13onViewChangedEv@Base 4:14.12.0
 _ZN6Kasten21CharsetConversionTool14conversionDoneEbiRK4QMapIhiE@Base 4:14.12.0
 _ZN6Kasten21CharsetConversionTool14setTargetModelEPNS_13AbstractModelE@Base 4:14.12.0
 _ZN6Kasten21CharsetConversionTool16staticMetaObjectE@Base 4:14.12.0
 _ZN6Kasten21CharsetConversionTool17setSubstituteByteEi@Base 4:14.12.0
 _ZN6Kasten21CharsetConversionTool18isApplyableChangedEb@Base 4:14.12.0
 _ZN6Kasten21CharsetConversionTool21setOtherCharCodecNameERK7QString@Base 4:14.12.0
 _ZN6Kasten21CharsetConversionTool22setConversionDirectionEi@Base 4:14.12.0
 _ZN6Kasten21CharsetConversionTool27setSubstitutingMissingCharsEb@Base 4:14.12.0
 _ZN6Kasten21CharsetConversionToolC1Ev@Base 4:14.12.0
 _ZN6Kasten21CharsetConversionToolC2Ev@Base 4:14.12.0
 _ZN6Kasten21CharsetConversionToolD0Ev@Base 4:14.12.0
 _ZN6Kasten21CharsetConversionToolD1Ev@Base 4:14.12.0
 _ZN6Kasten21CharsetConversionToolD2Ev@Base 4:14.12.0
 _ZN6Kasten21FilterToolViewFactory6createEPNS_12AbstractToolE@Base 4:14.12.0
 _ZN6Kasten21FilterToolViewFactoryC1Ev@Base 4:14.12.0
 _ZN6Kasten21FilterToolViewFactoryC2Ev@Base 4:14.12.0
 _ZN6Kasten21FilterToolViewFactoryD0Ev@Base 4:14.12.0
 _ZN6Kasten21FilterToolViewFactoryD1Ev@Base 4:14.12.0
 _ZN6Kasten21FilterToolViewFactoryD2Ev@Base 4:14.12.0
 _ZN6Kasten21PodDecoderToolFactory6createEv@Base 4:14.12.0
 _ZN6Kasten21PodDecoderToolFactoryC1Ev@Base 4:14.12.0
 _ZN6Kasten21PodDecoderToolFactoryC2Ev@Base 4:14.12.0
 _ZN6Kasten21PodDecoderToolFactoryD0Ev@Base 4:14.12.0
 _ZN6Kasten21PodDecoderToolFactoryD1Ev@Base 4:14.12.0
 _ZN6Kasten21PodDecoderToolFactoryD2Ev@Base 4:14.12.0
 _ZN6Kasten21SelectRangeController11qt_metacallEN11QMetaObject4CallEiPPv@Base 4:14.12.0
 _ZN6Kasten21SelectRangeController11qt_metacastEPKc@Base 4:14.12.0
 _ZN6Kasten21SelectRangeController14setTargetModelEPNS_13AbstractModelE@Base 4:14.12.0
 _ZN6Kasten21SelectRangeController16staticMetaObjectE@Base 4:14.12.0
 _ZN6Kasten21SelectRangeController6selectEv@Base 4:14.12.0
 _ZN6Kasten21SelectRangeControllerC1EPNS_2If18ToolInlineViewableEP13KXMLGUIClient@Base 4:14.12.0
 _ZN6Kasten21SelectRangeControllerC2EPNS_2If18ToolInlineViewableEP13KXMLGUIClient@Base 4:14.12.0
 _ZN6Kasten21SelectRangeControllerD0Ev@Base 4:14.12.0
 _ZN6Kasten21SelectRangeControllerD1Ev@Base 4:14.12.0
 _ZN6Kasten21SelectRangeControllerD2Ev@Base 4:14.12.0
 _ZN6Kasten21StructViewPreferences4selfEv@Base 4:14.12.0
 _ZN6Kasten21StructViewPreferencesC1Ev@Base 4:14.12.0
 _ZN6Kasten21StructViewPreferencesC2Ev@Base 4:14.12.0
 _ZN6Kasten21StructViewPreferencesD0Ev@Base 4:14.12.0
 _ZN6Kasten21StructViewPreferencesD1Ev@Base 4:14.12.0
 _ZN6Kasten21StructViewPreferencesD2Ev@Base 4:14.12.0
 _ZN6Kasten21StructuresToolFactory6createEv@Base 4:14.12.0
 _ZN6Kasten21StructuresToolFactoryC1Ev@Base 4:14.12.0
 _ZN6Kasten21StructuresToolFactoryC2Ev@Base 4:14.12.0
 _ZN6Kasten21StructuresToolFactoryD0Ev@Base 4:14.12.0
 _ZN6Kasten21StructuresToolFactoryD1Ev@Base 4:14.12.0
 _ZN6Kasten21StructuresToolFactoryD2Ev@Base 4:14.12.0
 _ZN6Kasten21ViewProfileController11qt_metacallEN11QMetaObject4CallEiPPv@Base 4:14.12.0
 _ZN6Kasten21ViewProfileController11qt_metacastEPKc@Base 4:14.12.0
 _ZN6Kasten21ViewProfileController14setTargetModelEPNS_13AbstractModelE@Base 4:14.12.0
 _ZN6Kasten21ViewProfileController16staticMetaObjectE@Base 4:14.12.0
 _ZN6Kasten21ViewProfileController20onViewProfileChangedERK7QString@Base 4:14.12.0
 _ZN6Kasten21ViewProfileController21onViewProfilesChangedEv@Base 4:14.12.0
 _ZN6Kasten21ViewProfileController22onViewProfileTriggeredEP7QAction@Base 4:14.12.0
 _ZN6Kasten21ViewProfileController23onLocalSyncStateChangedENS_14LocalSyncStateE@Base 4:14.12.0
 _ZN6Kasten21ViewProfileController26onCreateNewActionTriggeredEv@Base 4:14.12.0
 _ZN6Kasten21ViewProfileController28onSaveChangesActionTriggeredEv@Base 4:14.12.0
 _ZN6Kasten21ViewProfileController29onResetChangesActionTriggeredEv@Base 4:14.12.0
 _ZN6Kasten21ViewProfileControllerC1EPNS_27ByteArrayViewProfileManagerEP7QWidgetP13KXMLGUIClient@Base 4:14.12.0
 _ZN6Kasten21ViewProfileControllerC2EPNS_27ByteArrayViewProfileManagerEP7QWidgetP13KXMLGUIClient@Base 4:14.12.0
 _ZN6Kasten22StringsExtractToolViewC1EPNS_18StringsExtractToolE@Base 4:14.12.0
 _ZN6Kasten22StringsExtractToolViewC2EPNS_18StringsExtractToolE@Base 4:14.12.0
 _ZN6Kasten22StringsExtractToolViewD0Ev@Base 4:14.12.0
 _ZN6Kasten22StringsExtractToolViewD1Ev@Base 4:14.12.0
 _ZN6Kasten22StringsExtractToolViewD2Ev@Base 4:14.12.0
 _ZN6Kasten23ChecksumToolViewFactory6createEPNS_12AbstractToolE@Base 4:14.12.0
 _ZN6Kasten23ChecksumToolViewFactoryC1Ev@Base 4:14.12.0
 _ZN6Kasten23ChecksumToolViewFactoryC2Ev@Base 4:14.12.0
 _ZN6Kasten23ChecksumToolViewFactoryD0Ev@Base 4:14.12.0
 _ZN6Kasten23ChecksumToolViewFactoryD1Ev@Base 4:14.12.0
 _ZN6Kasten23ChecksumToolViewFactoryD2Ev@Base 4:14.12.0
 _ZN6Kasten23OverwriteModeController11qt_metacallEN11QMetaObject4CallEiPPv@Base 4:14.12.0
 _ZN6Kasten23OverwriteModeController11qt_metacastEPKc@Base 4:14.12.0
 _ZN6Kasten23OverwriteModeController12setOverWriteEb@Base 4:14.12.0
 _ZN6Kasten23OverwriteModeController14setTargetModelEPNS_13AbstractModelE@Base 4:14.12.0
 _ZN6Kasten23OverwriteModeController16staticMetaObjectE@Base 4:14.12.0
 _ZN6Kasten23OverwriteModeControllerC1EP13KXMLGUIClient@Base 4:14.12.0
 _ZN6Kasten23OverwriteModeControllerC2EP13KXMLGUIClient@Base 4:14.12.0
 _ZN6Kasten24BookmarksToolViewFactory6createEPNS_12AbstractToolE@Base 4:14.12.0
 _ZN6Kasten24BookmarksToolViewFactoryC1Ev@Base 4:14.12.0
 _ZN6Kasten24BookmarksToolViewFactoryC2Ev@Base 4:14.12.0
 _ZN6Kasten24BookmarksToolViewFactoryD0Ev@Base 4:14.12.0
 _ZN6Kasten24BookmarksToolViewFactoryD1Ev@Base 4:14.12.0
 _ZN6Kasten24BookmarksToolViewFactoryD2Ev@Base 4:14.12.0
 _ZN6Kasten24ByteTableToolViewFactory6createEPNS_12AbstractToolE@Base 4:14.12.0
 _ZN6Kasten24ByteTableToolViewFactoryC1Ev@Base 4:14.12.0
 _ZN6Kasten24ByteTableToolViewFactoryC2Ev@Base 4:14.12.0
 _ZN6Kasten24ByteTableToolViewFactoryD0Ev@Base 4:14.12.0
 _ZN6Kasten24ByteTableToolViewFactoryD1Ev@Base 4:14.12.0
 _ZN6Kasten24ByteTableToolViewFactoryD2Ev@Base 4:14.12.0
 _ZN6Kasten25CharsetConversionToolViewC1EPNS_21CharsetConversionToolE@Base 4:14.12.0
 _ZN6Kasten25CharsetConversionToolViewC2EPNS_21CharsetConversionToolE@Base 4:14.12.0
 _ZN6Kasten25CharsetConversionToolViewD0Ev@Base 4:14.12.0
 _ZN6Kasten25CharsetConversionToolViewD1Ev@Base 4:14.12.0
 _ZN6Kasten25CharsetConversionToolViewD2Ev@Base 4:14.12.0
 _ZN6Kasten25PodDecoderToolViewFactory6createEPNS_12AbstractToolE@Base 4:14.12.0
 _ZN6Kasten25PodDecoderToolViewFactoryC1Ev@Base 4:14.12.0
 _ZN6Kasten25PodDecoderToolViewFactoryC2Ev@Base 4:14.12.0
 _ZN6Kasten25PodDecoderToolViewFactoryD0Ev@Base 4:14.12.0
 _ZN6Kasten25PodDecoderToolViewFactoryD1Ev@Base 4:14.12.0
 _ZN6Kasten25PodDecoderToolViewFactoryD2Ev@Base 4:14.12.0
 _ZN6Kasten25StringsExtractToolFactory6createEv@Base 4:14.12.0
 _ZN6Kasten25StringsExtractToolFactoryC1Ev@Base 4:14.12.0
 _ZN6Kasten25StringsExtractToolFactoryC2Ev@Base 4:14.12.0
 _ZN6Kasten25StringsExtractToolFactoryD0Ev@Base 4:14.12.0
 _ZN6Kasten25StringsExtractToolFactoryD1Ev@Base 4:14.12.0
 _ZN6Kasten25StringsExtractToolFactoryD2Ev@Base 4:14.12.0
 _ZN6Kasten25StructuresToolViewFactory6createEPNS_12AbstractToolE@Base 4:14.12.0
 _ZN6Kasten25StructuresToolViewFactoryC1Ev@Base 4:14.12.0
 _ZN6Kasten25StructuresToolViewFactoryC2Ev@Base 4:14.12.0
 _ZN6Kasten25StructuresToolViewFactoryD0Ev@Base 4:14.12.0
 _ZN6Kasten25StructuresToolViewFactoryD1Ev@Base 4:14.12.0
 _ZN6Kasten25StructuresToolViewFactoryD2Ev@Base 4:14.12.0
 _ZN6Kasten28CharsetConversionToolFactory6createEv@Base 4:14.12.0
 _ZN6Kasten28CharsetConversionToolFactoryC1Ev@Base 4:14.12.0
 _ZN6Kasten28CharsetConversionToolFactoryC2Ev@Base 4:14.12.0
 _ZN6Kasten28CharsetConversionToolFactoryD0Ev@Base 4:14.12.0
 _ZN6Kasten28CharsetConversionToolFactoryD1Ev@Base 4:14.12.0
 _ZN6Kasten28CharsetConversionToolFactoryD2Ev@Base 4:14.12.0
 _ZN6Kasten28ViewProfilesManageController11qt_metacallEN11QMetaObject4CallEiPPv@Base 4:14.12.0
 _ZN6Kasten28ViewProfilesManageController11qt_metacastEPKc@Base 4:14.12.0
 _ZN6Kasten28ViewProfilesManageController14manageProfilesEv@Base 4:14.12.0
 _ZN6Kasten28ViewProfilesManageController14setTargetModelEPNS_13AbstractModelE@Base 4:14.12.0
 _ZN6Kasten28ViewProfilesManageController16staticMetaObjectE@Base 4:14.12.0
 _ZN6Kasten28ViewProfilesManageControllerC1EP13KXMLGUIClientPNS_27ByteArrayViewProfileManagerEP7QWidget@Base 4:14.12.0
 _ZN6Kasten28ViewProfilesManageControllerC2EP13KXMLGUIClientPNS_27ByteArrayViewProfileManagerEP7QWidget@Base 4:14.12.0
 _ZN6Kasten29StringsExtractToolViewFactory6createEPNS_12AbstractToolE@Base 4:14.12.0
 _ZN6Kasten29StringsExtractToolViewFactoryC1Ev@Base 4:14.12.0
 _ZN6Kasten29StringsExtractToolViewFactoryC2Ev@Base 4:14.12.0
 _ZN6Kasten29StringsExtractToolViewFactoryD0Ev@Base 4:14.12.0
 _ZN6Kasten29StringsExtractToolViewFactoryD1Ev@Base 4:14.12.0
 _ZN6Kasten29StringsExtractToolViewFactoryD2Ev@Base 4:14.12.0
 _ZN6Kasten32CharsetConversionToolViewFactory6createEPNS_12AbstractToolE@Base 4:14.12.0
 _ZN6Kasten32CharsetConversionToolViewFactoryC1Ev@Base 4:14.12.0
 _ZN6Kasten32CharsetConversionToolViewFactoryC2Ev@Base 4:14.12.0
 _ZN6Kasten32CharsetConversionToolViewFactoryD0Ev@Base 4:14.12.0
 _ZN6Kasten32CharsetConversionToolViewFactoryD1Ev@Base 4:14.12.0
 _ZN6Kasten32CharsetConversionToolViewFactoryD2Ev@Base 4:14.12.0
 _ZN6Kasten8InfoTool11qt_metacallEN11QMetaObject4CallEiPPv@Base 4:14.12.0
 _ZN6Kasten8InfoTool11qt_metacastEPKc@Base 4:14.12.0
 _ZN6Kasten8InfoTool14setTargetModelEPNS_13AbstractModelE@Base 4:14.12.0
 _ZN6Kasten8InfoTool14statisticDirtyEb@Base 4:14.12.0
 _ZN6Kasten8InfoTool15onSourceChangedEv@Base 4:14.12.0
 _ZN6Kasten8InfoTool15updateStatisticEv@Base 4:14.12.0
 _ZN6Kasten8InfoTool16staticMetaObjectE@Base 4:14.12.0
 _ZN6Kasten8InfoTool17onSourceDestroyedEv@Base 4:14.12.0
 _ZN6Kasten8InfoTool18isApplyableChangedEb@Base 4:14.12.0
 _ZN6Kasten8InfoTool18onSelectionChangedEv@Base 4:14.12.0
 _ZN6Kasten8InfoToolC1Ev@Base 4:14.12.0
 _ZN6Kasten8InfoToolC2Ev@Base 4:14.12.0
 _ZN6Kasten8InfoToolD0Ev@Base 4:14.12.0
 _ZN6Kasten8InfoToolD1Ev@Base 4:14.12.0
 _ZN6Kasten8InfoToolD2Ev@Base 4:14.12.0
 _ZN6QDebuglsEPKc@Base 4:14.12.0
 _ZN6QDebuglsERK7QString@Base 4:14.12.0
 (arch=arm64 mips64el ppc64 ppc64el s390x)_ZN6QDebuglsEi@Base 4:15.12.0
 (arch=!amd64 !arm64 !kfreebsd-amd64 !mips64el !ppc64 !ppc64el !s390x)_ZN6QDebuglsEj@Base 4:15.08.0
 (optional=templinst)_ZN7QVectorI18QSharedDataPointerI14EnumDefinitionEE11reallocDataEii6QFlagsIN10QArrayData16AllocationOptionEE@Base 4:14.12.0
 (optional=templinst)_ZN7QVectorI18QSharedDataPointerI14EnumDefinitionEE6appendERKS2_@Base 4:14.12.0
 (optional=templinst)_ZN7QVectorI5QPairI13QScriptString6QFlagsIN12QScriptValue12PropertyFlagEEEE11reallocDataEiiS2_IN10QArrayData16AllocationOptionEE@Base 4:14.12.0
 (optional=templinst)_ZN7QVectorI5QPairI13QScriptString6QFlagsIN12QScriptValue12PropertyFlagEEEE6appendERKS6_@Base 4:14.12.0
 (optional=templinst)_ZN7QVectorIN12ScriptLogger4DataEE11reallocDataEii6QFlagsIN10QArrayData16AllocationOptionEE@Base 4:14.12.0
 (optional=templinst)_ZN7QVectorIN12ScriptLogger4DataEE6appendERKS1_@Base 4:14.12.0
 (optional=templinst)_ZN7QVectorIN21TaggedUnionParsedData12AlternativesEE11reallocDataEii6QFlagsIN10QArrayData16AllocationOptionEE@Base 4:14.12.0
 (optional=templinst)_ZN7QVectorIN21TaggedUnionParsedData12AlternativesEE6appendERKS1_@Base 4:14.12.0
 (optional=templinst)_ZN7QVectorIN26TaggedUnionDataInformation9FieldInfoEE11reallocDataEii6QFlagsIN10QArrayData16AllocationOptionEE@Base 4:14.12.0
 (optional=templinst)_ZN7QVectorIN26TaggedUnionDataInformation9FieldInfoEE6appendERKS1_@Base 4:14.12.0
 (optional=templinst)_ZN7QVectorIP15DataInformationE11reallocDataEii6QFlagsIN10QArrayData16AllocationOptionEE@Base 4:14.12.0
 (optional=templinst)_ZN7QVectorIP15DataInformationE6appendERKS1_@Base 4:14.12.0
 (optional=templinst)_ZN7QVectorIP15DataInformationE7reserveEi@Base 4:14.12.0
 (optional=templinst)_ZN7QVectorIP15DataInformationEpLERKS2_@Base 4:14.12.0
 (optional=templinst)_ZN7QVectorIP23TopLevelDataInformationE11reallocDataEii6QFlagsIN10QArrayData16AllocationOptionEE@Base 4:14.12.0
 (optional=templinst)_ZN7QVectorIP23TopLevelDataInformationE6appendERKS1_@Base 4:14.12.0
 (optional=templinst)_ZN7QVectorIaE11reallocDataEii6QFlagsIN10QArrayData16AllocationOptionEE@Base 4:14.12.0
 (optional=templinst)_ZN7QVectorIaE6resizeEi@Base 4:14.12.0
 (optional=templinst)_ZN7QVectorIdE11reallocDataEii6QFlagsIN10QArrayData16AllocationOptionEE@Base 4:14.12.0
 (optional=templinst)_ZN7QVectorIdE6resizeEi@Base 4:14.12.0
 (optional=templinst)_ZN7QVectorIfE11reallocDataEii6QFlagsIN10QArrayData16AllocationOptionEE@Base 4:14.12.0
 (optional=templinst)_ZN7QVectorIfE6resizeEi@Base 4:14.12.0
 (optional=templinst)_ZN7QVectorIhE11reallocDataEii6QFlagsIN10QArrayData16AllocationOptionEE@Base 4:14.12.0
 (optional=templinst|arch=arm64 armel mips mips64el mipsel powerpc ppc64el s390x)_ZN7QVectorIhE6appendERKh@Base 4:15.12.0
 (optional=templinst)_ZN7QVectorIhE6detachEv@Base 4:14.12.0
 (optional=templinst)_ZN7QVectorIhE6resizeEi@Base 4:14.12.0
 (optional=templinst)_ZN7QVectorIhE7reserveEi@Base 4:14.12.0
 (optional=templinst)_ZN7QVectorIiE6resizeEi@Base 4:14.12.0
 (optional=templinst)_ZN7QVectorIjE11reallocDataEii6QFlagsIN10QArrayData16AllocationOptionEE@Base 4:14.12.0
 (optional=templinst|arch=arm64 armel mips mips64el mipsel powerpc ppc64el s390x)_ZN7QVectorIjE6appendERKj@Base 4:15.12.0
 (optional=templinst)_ZN7QVectorIjE6detachEv@Base 4:15.08.0
 (optional=templinst)_ZN7QVectorIjE6resizeEi@Base 4:14.12.0
 (optional=templinst)_ZN7QVectorIjE7reserveEi@Base 4:14.12.0
 (optional=templinst)_ZN7QVectorIsE11reallocDataEii6QFlagsIN10QArrayData16AllocationOptionEE@Base 4:14.12.0
 (optional=templinst)_ZN7QVectorIsE6resizeEi@Base 4:14.12.0
 (optional=templinst)_ZN7QVectorItE11reallocDataEii6QFlagsIN10QArrayData16AllocationOptionEE@Base 4:14.12.0
 (optional=templinst)_ZN7QVectorItE6detachEv@Base 4:15.08.0
 (optional=templinst)_ZN7QVectorItE6resizeEi@Base 4:14.12.0
 (optional=templinst)_ZN7QVectorItE7reserveEi@Base 4:14.12.0
 (optional=templinst)_ZN7QVectorIxE11reallocDataEii6QFlagsIN10QArrayData16AllocationOptionEE@Base 4:14.12.0
 (optional=templinst)_ZN7QVectorIxE6resizeEi@Base 4:14.12.0
 (optional=templinst)_ZN7QVectorIyE11reallocDataEii6QFlagsIN10QArrayData16AllocationOptionEE@Base 4:14.12.0
 (optional=templinst)_ZN7QVectorIyE6detachEv@Base 4:14.12.0
 (optional=templinst)_ZN7QVectorIyE6resizeEi@Base 4:14.12.0
 (optional=templinst)_ZN7QVectorIyE7reserveEi@Base 4:14.12.0
 (optional=templinst)_ZN8QMapNodeI17AllPrimitiveTypes7QStringE14destroySubTreeEv@Base 4:14.12.0
 _ZN9OsdParser10parseEnumsERK11QDomElementP12ScriptLogger@Base 4:14.12.0
 _ZN9OsdParser11enumFromXMLERK11QDomElementbRK13OsdParserInfo@Base 4:14.12.0
 _ZN9OsdParser12arrayFromXMLERK11QDomElementRK13OsdParserInfo@Base 4:14.12.0
 _ZN9OsdParser12parseElementERK11QDomElementRK13OsdParserInfo@Base 4:14.12.0
 _ZN9OsdParser12readPropertyERK11QDomElementRK7QStringS5_@Base 4:14.12.0
 _ZN9OsdParser13stringFromXMLERK11QDomElementRK13OsdParserInfo@Base 4:14.12.0
 _ZN9OsdParser14pointerFromXMLERK11QDomElementRK13OsdParserInfo@Base 4:14.12.0
 _ZN9OsdParser15bitfieldFromXMLERK11QDomElementRK13OsdParserInfo@Base 4:14.12.0
 _ZN9OsdParser16primitiveFromXMLERK11QDomElementRK13OsdParserInfo@Base 4:14.12.0
 _ZN9OsdParser17parseChildElementERK11QDomElementRK13OsdParserInfoRK7QString@Base 4:14.12.0
 _ZN9OsdParser18taggedUnionFromXMLERK11QDomElementRK13OsdParserInfo@Base 4:14.12.0
 _ZN9OsdParser8findEnumERK7QStringRK13OsdParserInfo@Base 4:14.12.0
 _ZN9OsdParser9parseTypeERK11QDomElementRK13OsdParserInfoRK7QString@Base 4:14.12.0
 _ZN9OsdParserC1ERK7QString@Base 4:14.12.0
 _ZN9OsdParserC1ERK7QStringS2_@Base 4:14.12.0
 _ZN9OsdParserC2ERK7QString@Base 4:14.12.0
 _ZN9OsdParserC2ERK7QStringS2_@Base 4:14.12.0
 _ZN9OsdParserD0Ev@Base 4:14.12.0
 _ZN9OsdParserD1Ev@Base 4:14.12.0
 _ZN9OsdParserD2Ev@Base 4:14.12.0
 (optional=templinst)_ZN9QtPrivate11QSlotObjectIM16ScriptLoggerViewFviENS_4ListIIiEEEvE4implEiPNS_15QSlotObjectBaseEP7QObjectPPvPb@Base 4:14.12.0
 (optional=templinst)_ZN9QtPrivate11QSlotObjectIM16ScriptLoggerViewFviENS_4ListIJiEEEvE4implEiPNS_15QSlotObjectBaseEP7QObjectPPvPb@Base 4:14.12.0
 (optional=templinst)_ZN9QtPrivate11QSlotObjectIM23TopLevelDataInformationFvP7QObjectENS_4ListIIS3_EEEvE4implEiPNS_15QSlotObjectBaseES3_PPvPb@Base 4:14.12.0
 (optional=templinst)_ZN9QtPrivate11QSlotObjectIM23TopLevelDataInformationFvP7QObjectENS_4ListIJS3_EEEvE4implEiPNS_15QSlotObjectBaseES3_PPvPb@Base 4:14.12.0
 (optional=templinst)_ZN9QtPrivate19QVariantValueHelperI12QScriptValueE8metaTypeERK8QVariant@Base 4:15.08.0
 (arch=arm64 armel mips64el ppc64 ppc64el s390x)_ZN9QtPrivate8RefCount3refEv@Base 4:15.12.0
 (arch=arm64 armel mips mips64el mipsel powerpc ppc64 ppc64el s390x)_ZN9QtPrivate8RefCount5derefEv@Base 4:15.12.0
 _ZNK10ParserInfo5errorEv@Base 4:14.12.0
 _ZNK10ParserInfo7contextEv@Base 4:14.12.0
 _ZNK10Utf8Editor10metaObjectEv@Base 4:14.12.0
 _ZNK10Utf8Editor4dataEv@Base 4:14.12.0
 _ZNK11Char8Editor10metaObjectEv@Base 4:14.12.0
 _ZNK11Char8Editor4dataEv@Base 4:14.12.0
 _ZNK11SIntSpinBox10metaObjectEv@Base 4:14.12.0
 _ZNK11SIntSpinBox11stepEnabledEv@Base 4:14.12.0
 _ZNK11SIntSpinBox14updateEditLineEv@Base 4:14.12.0
 _ZNK11SIntSpinBox5fixupER7QString@Base 4:14.12.0
 _ZNK11SIntSpinBox8validateER7QStringRi@Base 4:14.12.0
 _ZNK11UIntSpinBox10metaObjectEv@Base 4:14.12.0
 _ZNK11UIntSpinBox11stepEnabledEv@Base 4:14.12.0
 _ZNK11UIntSpinBox14updateEditLineEv@Base 4:14.12.0
 _ZNK11UIntSpinBox5fixupER7QString@Base 4:14.12.0
 _ZNK11UIntSpinBox8validateER7QStringRi@Base 4:14.12.0
 _ZNK12Octal8Editor10metaObjectEv@Base 4:14.12.0
 _ZNK12Octal8Editor4dataEv@Base 4:14.12.0
 _ZNK12ScriptLogger10headerDataEiN2Qt11OrientationEi@Base 4:14.12.0
 _ZNK12ScriptLogger10metaObjectEv@Base 4:14.12.0
 _ZNK12ScriptLogger11columnCountERK11QModelIndex@Base 4:14.12.0
 _ZNK12ScriptLogger4dataERK11QModelIndexi@Base 4:14.12.0
 _ZNK12ScriptLogger8messagesENS_8LogLevelE@Base 4:14.12.0
 _ZNK12ScriptLogger8rowCountERK11QModelIndex@Base 4:14.12.0
 _ZNK13Binary8Editor10metaObjectEv@Base 4:14.12.0
 _ZNK13Binary8Editor4dataEv@Base 4:14.12.0
 _ZNK13Float32Editor10metaObjectEv@Base 4:14.12.0
 _ZNK13Float32Editor4dataEv@Base 4:14.12.0
 _ZNK13Float64Editor10metaObjectEv@Base 4:14.12.0
 _ZNK13Float64Editor4dataEv@Base 4:14.12.0
 _ZNK14Char8Validator8validateER7QStringRi@Base 4:14.12.0
 (optional=templinst)_ZNK14QStringBuilderIS_I11QLatin1Char7QStringES0_E9convertToIS1_EET_v@Base 4:15.08.0
 (optional=templinst)_ZNK14QStringBuilderIS_IS_I7QString11QLatin1CharES0_ES1_E9convertToIS0_EET_v@Base 4:15.08.0
 _ZNK14Utf8StringData11stringValueEi@Base 4:14.12.0
 _ZNK14Utf8StringData14completeStringEb@Base 4:14.12.0
 _ZNK14Utf8StringData4sizeEv@Base 4:14.12.0
 _ZNK14Utf8StringData5countEv@Base 4:14.12.0
 _ZNK14Utf8StringData6sizeAtEj@Base 4:14.12.0
 _ZNK14Utf8StringData8charTypeEv@Base 4:14.12.0
 _ZNK14Utf8StringData8typeNameEv@Base 4:14.12.0
 _ZNK15AsciiStringData11stringValueEi@Base 4:14.12.0
 _ZNK15AsciiStringData14completeStringEb@Base 4:14.12.0
 _ZNK15AsciiStringData4sizeEv@Base 4:14.12.0
 _ZNK15AsciiStringData5countEv@Base 4:14.12.0
 _ZNK15AsciiStringData6sizeAtEj@Base 4:14.12.0
 _ZNK15AsciiStringData8charTypeEv@Base 4:14.12.0
 _ZNK15AsciiStringData8typeNameEv@Base 4:14.12.0
 _ZNK15DataInformation10sizeStringEv@Base 4:14.12.0
 _ZNK15DataInformation11valueStringEv@Base 4:15.12.0
 _ZNK15DataInformation13tooltipStringEv@Base 4:14.12.0
 _ZNK15DataInformation14customToStringERK12QScriptValue@Base 4:14.12.0
 _ZNK15DataInformation14fullObjectPathEv@Base 4:14.12.0
 _ZNK15DataInformation14positionInFileEi@Base 4:14.12.0
 _ZNK15DataInformation15valueStringImplEv@Base 4:14.12.0
 _ZNK15DataInformation16toStringFunctionEv@Base 4:15.12.0
 _ZNK15DataInformation18effectiveByteOrderEv@Base 4:14.12.0
 _ZNK15DataInformation21byteOrderFromSettingsEv@Base 4:14.12.0
 _ZNK15DataInformation23topLevelDataInformationEv@Base 4:14.12.0
 _ZNK15DataInformation3rowEv@Base 4:14.12.0
 _ZNK15DataInformation4dataEii@Base 4:14.12.0
 _ZNK15DataInformation5childERK7QString@Base 4:14.12.0
 (arch=armel armhf)_ZNK15DataInformation5flagsEib@Base 4:15.08.0
 _ZNK15DataInformation6loggerEv@Base 4:14.12.0
 _ZNK15DataInformation8typeNameEv@Base 4:15.12.0
 _ZNK15Utf16StringData11stringValueEi@Base 4:14.12.0
 _ZNK15Utf16StringData14completeStringEb@Base 4:14.12.0
 _ZNK15Utf16StringData4sizeEv@Base 4:14.12.0
 _ZNK15Utf16StringData5countEv@Base 4:14.12.0
 _ZNK15Utf16StringData6sizeAtEj@Base 4:14.12.0
 _ZNK15Utf16StringData8charTypeEv@Base 4:14.12.0
 _ZNK15Utf16StringData8typeNameEv@Base 4:14.12.0
 _ZNK15Utf32StringData11stringValueEi@Base 4:14.12.0
 _ZNK15Utf32StringData14completeStringEb@Base 4:14.12.0
 _ZNK15Utf32StringData4sizeEv@Base 4:14.12.0
 _ZNK15Utf32StringData5countEv@Base 4:14.12.0
 _ZNK15Utf32StringData6sizeAtEj@Base 4:14.12.0
 _ZNK15Utf32StringData8charTypeEv@Base 4:14.12.0
 _ZNK15Utf32StringData8typeNameEv@Base 4:14.12.0
 _ZNK16ArrayScriptClass9prototypeEv@Base 4:14.12.0
 _ZNK16ComplexArrayData13primitiveTypeEv@Base 4:14.12.0
 _ZNK16ComplexArrayData18setChildWidgetDataEjP7QWidget@Base 4:14.12.0
 _ZNK16ComplexArrayData19dataFromChildWidgetEjPK7QWidget@Base 4:14.12.0
 _ZNK16ComplexArrayData21createChildEditWidgetEjP7QWidget@Base 4:14.12.0
 _ZNK16ComplexArrayData4sizeEv@Base 4:14.12.0
 _ZNK16ComplexArrayData6lengthEv@Base 4:14.12.0
 _ZNK16ComplexArrayData6offsetEPK15DataInformation@Base 4:14.12.0
 _ZNK16ComplexArrayData7indexOfEPK15DataInformation@Base 4:14.12.0
 _ZNK16ComplexArrayData8typeNameEv@Base 4:14.12.0
 _ZNK16ComplexArrayData9isComplexEv@Base 4:14.12.0
 _ZNK16Latin1StringData11stringValueEi@Base 4:14.12.0
 _ZNK16Latin1StringData14completeStringEb@Base 4:14.12.0
 _ZNK16Latin1StringData4sizeEv@Base 4:14.12.0
 _ZNK16Latin1StringData5countEv@Base 4:14.12.0
 _ZNK16Latin1StringData6sizeAtEj@Base 4:14.12.0
 _ZNK16Latin1StringData8charTypeEv@Base 4:14.12.0
 _ZNK16Latin1StringData8typeNameEv@Base 4:14.12.0
 _ZNK16ScriptFileParser15loadScriptValueEP12ScriptLoggerP13QScriptEngine@Base 4:14.12.0
 _ZNK16ScriptFileParser15parseStructuresEv@Base 4:14.12.0
 _ZNK16ScriptFileParser19parseStructureNamesEv@Base 4:14.12.0
 _ZNK16ScriptLoggerView10metaObjectEv@Base 4:14.12.0
 _ZNK17AllPrimitiveTypes18writeDataBigEndianEhS_PN6Okteta22AbstractByteArrayModelEih@Base 4:14.12.0
 _ZNK17AllPrimitiveTypes21writeDataLittleEndianEhS_PN6Okteta22AbstractByteArrayModelEih@Base 4:14.12.0
 _ZNK17StringScriptClass9prototypeEv@Base 4:14.12.0
 _ZNK17Utf8CharValidator8validateER7QStringRi@Base 4:14.12.0
 _ZNK18DefaultScriptClass9prototypeEv@Base 4:14.12.0
 _ZNK18Hexadecimal8Editor10metaObjectEv@Base 4:14.12.0
 _ZNK18Hexadecimal8Editor4dataEv@Base 4:14.12.0
 (optional=templinst)_ZNK18PrimitiveArrayDataIL21PrimitiveDataTypeEnum0EE13primitiveTypeEv@Base 4:14.12.0
 (optional=templinst)_ZNK18PrimitiveArrayDataIL21PrimitiveDataTypeEnum0EE18setChildWidgetDataEjP7QWidget@Base 4:14.12.0
 (optional=templinst)_ZNK18PrimitiveArrayDataIL21PrimitiveDataTypeEnum0EE19dataFromChildWidgetEjPK7QWidget@Base 4:14.12.0
 (optional=templinst)_ZNK18PrimitiveArrayDataIL21PrimitiveDataTypeEnum0EE21createChildEditWidgetEjP7QWidget@Base 4:14.12.0
 (optional=templinst)_ZNK18PrimitiveArrayDataIL21PrimitiveDataTypeEnum0EE4sizeEv@Base 4:14.12.0
 (optional=templinst)_ZNK18PrimitiveArrayDataIL21PrimitiveDataTypeEnum0EE6lengthEv@Base 4:14.12.0
 (optional=templinst)_ZNK18PrimitiveArrayDataIL21PrimitiveDataTypeEnum0EE6offsetEPK15DataInformation@Base 4:14.12.0
 (optional=templinst)_ZNK18PrimitiveArrayDataIL21PrimitiveDataTypeEnum0EE7indexOfEPK15DataInformation@Base 4:14.12.0
 (optional=templinst)_ZNK18PrimitiveArrayDataIL21PrimitiveDataTypeEnum0EE7valueAtEi@Base 4:14.12.0
 (optional=templinst)_ZNK18PrimitiveArrayDataIL21PrimitiveDataTypeEnum0EE8typeNameEv@Base 4:14.12.0
 (optional=templinst)_ZNK18PrimitiveArrayDataIL21PrimitiveDataTypeEnum0EE9isComplexEv@Base 4:14.12.0
 (optional=templinst)_ZNK18PrimitiveArrayDataIL21PrimitiveDataTypeEnum10EE13primitiveTypeEv@Base 4:14.12.0
 (optional=templinst)_ZNK18PrimitiveArrayDataIL21PrimitiveDataTypeEnum10EE18setChildWidgetDataEjP7QWidget@Base 4:14.12.0
 (optional=templinst)_ZNK18PrimitiveArrayDataIL21PrimitiveDataTypeEnum10EE19dataFromChildWidgetEjPK7QWidget@Base 4:14.12.0
 (optional=templinst)_ZNK18PrimitiveArrayDataIL21PrimitiveDataTypeEnum10EE21createChildEditWidgetEjP7QWidget@Base 4:14.12.0
 (optional=templinst)_ZNK18PrimitiveArrayDataIL21PrimitiveDataTypeEnum10EE4sizeEv@Base 4:14.12.0
 (optional=templinst)_ZNK18PrimitiveArrayDataIL21PrimitiveDataTypeEnum10EE6lengthEv@Base 4:14.12.0
 (optional=templinst)_ZNK18PrimitiveArrayDataIL21PrimitiveDataTypeEnum10EE6offsetEPK15DataInformation@Base 4:14.12.0
 (optional=templinst)_ZNK18PrimitiveArrayDataIL21PrimitiveDataTypeEnum10EE7indexOfEPK15DataInformation@Base 4:14.12.0
 (optional=templinst)_ZNK18PrimitiveArrayDataIL21PrimitiveDataTypeEnum10EE7valueAtEi@Base 4:14.12.0
 (optional=templinst)_ZNK18PrimitiveArrayDataIL21PrimitiveDataTypeEnum10EE8typeNameEv@Base 4:14.12.0
 (optional=templinst)_ZNK18PrimitiveArrayDataIL21PrimitiveDataTypeEnum10EE9isComplexEv@Base 4:14.12.0
 (optional=templinst)_ZNK18PrimitiveArrayDataIL21PrimitiveDataTypeEnum11EE13primitiveTypeEv@Base 4:14.12.0
 (optional=templinst)_ZNK18PrimitiveArrayDataIL21PrimitiveDataTypeEnum11EE18setChildWidgetDataEjP7QWidget@Base 4:14.12.0
 (optional=templinst)_ZNK18PrimitiveArrayDataIL21PrimitiveDataTypeEnum11EE19dataFromChildWidgetEjPK7QWidget@Base 4:14.12.0
 (optional=templinst)_ZNK18PrimitiveArrayDataIL21PrimitiveDataTypeEnum11EE21createChildEditWidgetEjP7QWidget@Base 4:14.12.0
 (optional=templinst)_ZNK18PrimitiveArrayDataIL21PrimitiveDataTypeEnum11EE4sizeEv@Base 4:14.12.0
 (optional=templinst)_ZNK18PrimitiveArrayDataIL21PrimitiveDataTypeEnum11EE6lengthEv@Base 4:14.12.0
 (optional=templinst)_ZNK18PrimitiveArrayDataIL21PrimitiveDataTypeEnum11EE6offsetEPK15DataInformation@Base 4:14.12.0
 (optional=templinst)_ZNK18PrimitiveArrayDataIL21PrimitiveDataTypeEnum11EE7indexOfEPK15DataInformation@Base 4:14.12.0
 (optional=templinst)_ZNK18PrimitiveArrayDataIL21PrimitiveDataTypeEnum11EE7valueAtEi@Base 4:14.12.0
 (optional=templinst)_ZNK18PrimitiveArrayDataIL21PrimitiveDataTypeEnum11EE8typeNameEv@Base 4:14.12.0
 (optional=templinst)_ZNK18PrimitiveArrayDataIL21PrimitiveDataTypeEnum11EE9isComplexEv@Base 4:14.12.0
 (optional=templinst)_ZNK18PrimitiveArrayDataIL21PrimitiveDataTypeEnum12EE13primitiveTypeEv@Base 4:14.12.0
 (optional=templinst)_ZNK18PrimitiveArrayDataIL21PrimitiveDataTypeEnum12EE18setChildWidgetDataEjP7QWidget@Base 4:14.12.0
 (optional=templinst)_ZNK18PrimitiveArrayDataIL21PrimitiveDataTypeEnum12EE19dataFromChildWidgetEjPK7QWidget@Base 4:14.12.0
 (optional=templinst)_ZNK18PrimitiveArrayDataIL21PrimitiveDataTypeEnum12EE21createChildEditWidgetEjP7QWidget@Base 4:14.12.0
 (optional=templinst)_ZNK18PrimitiveArrayDataIL21PrimitiveDataTypeEnum12EE4sizeEv@Base 4:14.12.0
 (optional=templinst)_ZNK18PrimitiveArrayDataIL21PrimitiveDataTypeEnum12EE6lengthEv@Base 4:14.12.0
 (optional=templinst)_ZNK18PrimitiveArrayDataIL21PrimitiveDataTypeEnum12EE6offsetEPK15DataInformation@Base 4:14.12.0
 (optional=templinst)_ZNK18PrimitiveArrayDataIL21PrimitiveDataTypeEnum12EE7indexOfEPK15DataInformation@Base 4:14.12.0
 (optional=templinst)_ZNK18PrimitiveArrayDataIL21PrimitiveDataTypeEnum12EE7valueAtEi@Base 4:14.12.0
 (optional=templinst)_ZNK18PrimitiveArrayDataIL21PrimitiveDataTypeEnum12EE8typeNameEv@Base 4:14.12.0
 (optional=templinst)_ZNK18PrimitiveArrayDataIL21PrimitiveDataTypeEnum12EE9isComplexEv@Base 4:14.12.0
 (optional=templinst)_ZNK18PrimitiveArrayDataIL21PrimitiveDataTypeEnum13EE13primitiveTypeEv@Base 4:14.12.0
 (optional=templinst)_ZNK18PrimitiveArrayDataIL21PrimitiveDataTypeEnum13EE18setChildWidgetDataEjP7QWidget@Base 4:14.12.0
 (optional=templinst)_ZNK18PrimitiveArrayDataIL21PrimitiveDataTypeEnum13EE19dataFromChildWidgetEjPK7QWidget@Base 4:14.12.0
 (optional=templinst)_ZNK18PrimitiveArrayDataIL21PrimitiveDataTypeEnum13EE21createChildEditWidgetEjP7QWidget@Base 4:14.12.0
 (optional=templinst)_ZNK18PrimitiveArrayDataIL21PrimitiveDataTypeEnum13EE4sizeEv@Base 4:14.12.0
 (optional=templinst)_ZNK18PrimitiveArrayDataIL21PrimitiveDataTypeEnum13EE6lengthEv@Base 4:14.12.0
 (optional=templinst)_ZNK18PrimitiveArrayDataIL21PrimitiveDataTypeEnum13EE6offsetEPK15DataInformation@Base 4:14.12.0
 (optional=templinst)_ZNK18PrimitiveArrayDataIL21PrimitiveDataTypeEnum13EE7indexOfEPK15DataInformation@Base 4:14.12.0
 (optional=templinst)_ZNK18PrimitiveArrayDataIL21PrimitiveDataTypeEnum13EE7valueAtEi@Base 4:14.12.0
 (optional=templinst)_ZNK18PrimitiveArrayDataIL21PrimitiveDataTypeEnum13EE8typeNameEv@Base 4:14.12.0
 (optional=templinst)_ZNK18PrimitiveArrayDataIL21PrimitiveDataTypeEnum13EE9isComplexEv@Base 4:14.12.0
 (optional=templinst)_ZNK18PrimitiveArrayDataIL21PrimitiveDataTypeEnum14EE13primitiveTypeEv@Base 4:14.12.0
 (optional=templinst)_ZNK18PrimitiveArrayDataIL21PrimitiveDataTypeEnum14EE18setChildWidgetDataEjP7QWidget@Base 4:14.12.0
 (optional=templinst)_ZNK18PrimitiveArrayDataIL21PrimitiveDataTypeEnum14EE19dataFromChildWidgetEjPK7QWidget@Base 4:14.12.0
 (optional=templinst)_ZNK18PrimitiveArrayDataIL21PrimitiveDataTypeEnum14EE21createChildEditWidgetEjP7QWidget@Base 4:14.12.0
 (optional=templinst)_ZNK18PrimitiveArrayDataIL21PrimitiveDataTypeEnum14EE4sizeEv@Base 4:14.12.0
 (optional=templinst)_ZNK18PrimitiveArrayDataIL21PrimitiveDataTypeEnum14EE6lengthEv@Base 4:14.12.0
 (optional=templinst)_ZNK18PrimitiveArrayDataIL21PrimitiveDataTypeEnum14EE6offsetEPK15DataInformation@Base 4:14.12.0
 (optional=templinst)_ZNK18PrimitiveArrayDataIL21PrimitiveDataTypeEnum14EE7indexOfEPK15DataInformation@Base 4:14.12.0
 (optional=templinst)_ZNK18PrimitiveArrayDataIL21PrimitiveDataTypeEnum14EE7valueAtEi@Base 4:14.12.0
 (optional=templinst)_ZNK18PrimitiveArrayDataIL21PrimitiveDataTypeEnum14EE8typeNameEv@Base 4:14.12.0
 (optional=templinst)_ZNK18PrimitiveArrayDataIL21PrimitiveDataTypeEnum14EE9isComplexEv@Base 4:14.12.0
 (optional=templinst)_ZNK18PrimitiveArrayDataIL21PrimitiveDataTypeEnum1EE13primitiveTypeEv@Base 4:14.12.0
 (optional=templinst)_ZNK18PrimitiveArrayDataIL21PrimitiveDataTypeEnum1EE18setChildWidgetDataEjP7QWidget@Base 4:14.12.0
 (optional=templinst)_ZNK18PrimitiveArrayDataIL21PrimitiveDataTypeEnum1EE19dataFromChildWidgetEjPK7QWidget@Base 4:14.12.0
 (optional=templinst)_ZNK18PrimitiveArrayDataIL21PrimitiveDataTypeEnum1EE21createChildEditWidgetEjP7QWidget@Base 4:14.12.0
 (optional=templinst)_ZNK18PrimitiveArrayDataIL21PrimitiveDataTypeEnum1EE4sizeEv@Base 4:14.12.0
 (optional=templinst)_ZNK18PrimitiveArrayDataIL21PrimitiveDataTypeEnum1EE6lengthEv@Base 4:14.12.0
 (optional=templinst)_ZNK18PrimitiveArrayDataIL21PrimitiveDataTypeEnum1EE6offsetEPK15DataInformation@Base 4:14.12.0
 (optional=templinst)_ZNK18PrimitiveArrayDataIL21PrimitiveDataTypeEnum1EE7indexOfEPK15DataInformation@Base 4:14.12.0
 (optional=templinst)_ZNK18PrimitiveArrayDataIL21PrimitiveDataTypeEnum1EE7valueAtEi@Base 4:14.12.0
 (optional=templinst)_ZNK18PrimitiveArrayDataIL21PrimitiveDataTypeEnum1EE8typeNameEv@Base 4:14.12.0
 (optional=templinst)_ZNK18PrimitiveArrayDataIL21PrimitiveDataTypeEnum1EE9isComplexEv@Base 4:14.12.0
 (optional=templinst)_ZNK18PrimitiveArrayDataIL21PrimitiveDataTypeEnum2EE13primitiveTypeEv@Base 4:14.12.0
 (optional=templinst)_ZNK18PrimitiveArrayDataIL21PrimitiveDataTypeEnum2EE18setChildWidgetDataEjP7QWidget@Base 4:14.12.0
 (optional=templinst)_ZNK18PrimitiveArrayDataIL21PrimitiveDataTypeEnum2EE19dataFromChildWidgetEjPK7QWidget@Base 4:14.12.0
 (optional=templinst)_ZNK18PrimitiveArrayDataIL21PrimitiveDataTypeEnum2EE21createChildEditWidgetEjP7QWidget@Base 4:14.12.0
 (optional=templinst)_ZNK18PrimitiveArrayDataIL21PrimitiveDataTypeEnum2EE4sizeEv@Base 4:14.12.0
 (optional=templinst)_ZNK18PrimitiveArrayDataIL21PrimitiveDataTypeEnum2EE6lengthEv@Base 4:14.12.0
 (optional=templinst)_ZNK18PrimitiveArrayDataIL21PrimitiveDataTypeEnum2EE6offsetEPK15DataInformation@Base 4:14.12.0
 (optional=templinst)_ZNK18PrimitiveArrayDataIL21PrimitiveDataTypeEnum2EE7indexOfEPK15DataInformation@Base 4:14.12.0
 (optional=templinst)_ZNK18PrimitiveArrayDataIL21PrimitiveDataTypeEnum2EE7valueAtEi@Base 4:14.12.0
 (optional=templinst)_ZNK18PrimitiveArrayDataIL21PrimitiveDataTypeEnum2EE8typeNameEv@Base 4:14.12.0
 (optional=templinst)_ZNK18PrimitiveArrayDataIL21PrimitiveDataTypeEnum2EE9isComplexEv@Base 4:14.12.0
 (optional=templinst)_ZNK18PrimitiveArrayDataIL21PrimitiveDataTypeEnum3EE13primitiveTypeEv@Base 4:14.12.0
 (optional=templinst)_ZNK18PrimitiveArrayDataIL21PrimitiveDataTypeEnum3EE18setChildWidgetDataEjP7QWidget@Base 4:14.12.0
 (optional=templinst)_ZNK18PrimitiveArrayDataIL21PrimitiveDataTypeEnum3EE19dataFromChildWidgetEjPK7QWidget@Base 4:14.12.0
 (optional=templinst)_ZNK18PrimitiveArrayDataIL21PrimitiveDataTypeEnum3EE21createChildEditWidgetEjP7QWidget@Base 4:14.12.0
 (optional=templinst)_ZNK18PrimitiveArrayDataIL21PrimitiveDataTypeEnum3EE4sizeEv@Base 4:14.12.0
 (optional=templinst)_ZNK18PrimitiveArrayDataIL21PrimitiveDataTypeEnum3EE6lengthEv@Base 4:14.12.0
 (optional=templinst)_ZNK18PrimitiveArrayDataIL21PrimitiveDataTypeEnum3EE6offsetEPK15DataInformation@Base 4:14.12.0
 (optional=templinst)_ZNK18PrimitiveArrayDataIL21PrimitiveDataTypeEnum3EE7indexOfEPK15DataInformation@Base 4:14.12.0
 (optional=templinst)_ZNK18PrimitiveArrayDataIL21PrimitiveDataTypeEnum3EE7valueAtEi@Base 4:14.12.0
 (optional=templinst)_ZNK18PrimitiveArrayDataIL21PrimitiveDataTypeEnum3EE8typeNameEv@Base 4:14.12.0
 (optional=templinst)_ZNK18PrimitiveArrayDataIL21PrimitiveDataTypeEnum3EE9isComplexEv@Base 4:14.12.0
 (optional=templinst)_ZNK18PrimitiveArrayDataIL21PrimitiveDataTypeEnum4EE13primitiveTypeEv@Base 4:14.12.0
 (optional=templinst)_ZNK18PrimitiveArrayDataIL21PrimitiveDataTypeEnum4EE18setChildWidgetDataEjP7QWidget@Base 4:14.12.0
 (optional=templinst)_ZNK18PrimitiveArrayDataIL21PrimitiveDataTypeEnum4EE19dataFromChildWidgetEjPK7QWidget@Base 4:14.12.0
 (optional=templinst)_ZNK18PrimitiveArrayDataIL21PrimitiveDataTypeEnum4EE21createChildEditWidgetEjP7QWidget@Base 4:14.12.0
 (optional=templinst)_ZNK18PrimitiveArrayDataIL21PrimitiveDataTypeEnum4EE4sizeEv@Base 4:14.12.0
 (optional=templinst)_ZNK18PrimitiveArrayDataIL21PrimitiveDataTypeEnum4EE6lengthEv@Base 4:14.12.0
 (optional=templinst)_ZNK18PrimitiveArrayDataIL21PrimitiveDataTypeEnum4EE6offsetEPK15DataInformation@Base 4:14.12.0
 (optional=templinst)_ZNK18PrimitiveArrayDataIL21PrimitiveDataTypeEnum4EE7indexOfEPK15DataInformation@Base 4:14.12.0
 (optional=templinst)_ZNK18PrimitiveArrayDataIL21PrimitiveDataTypeEnum4EE7valueAtEi@Base 4:14.12.0
 (optional=templinst)_ZNK18PrimitiveArrayDataIL21PrimitiveDataTypeEnum4EE8typeNameEv@Base 4:14.12.0
 (optional=templinst)_ZNK18PrimitiveArrayDataIL21PrimitiveDataTypeEnum4EE9isComplexEv@Base 4:14.12.0
 (optional=templinst)_ZNK18PrimitiveArrayDataIL21PrimitiveDataTypeEnum5EE13primitiveTypeEv@Base 4:14.12.0
 (optional=templinst)_ZNK18PrimitiveArrayDataIL21PrimitiveDataTypeEnum5EE18setChildWidgetDataEjP7QWidget@Base 4:14.12.0
 (optional=templinst)_ZNK18PrimitiveArrayDataIL21PrimitiveDataTypeEnum5EE19dataFromChildWidgetEjPK7QWidget@Base 4:14.12.0
 (optional=templinst)_ZNK18PrimitiveArrayDataIL21PrimitiveDataTypeEnum5EE21createChildEditWidgetEjP7QWidget@Base 4:14.12.0
 (optional=templinst)_ZNK18PrimitiveArrayDataIL21PrimitiveDataTypeEnum5EE4sizeEv@Base 4:14.12.0
 (optional=templinst)_ZNK18PrimitiveArrayDataIL21PrimitiveDataTypeEnum5EE6lengthEv@Base 4:14.12.0
 (optional=templinst)_ZNK18PrimitiveArrayDataIL21PrimitiveDataTypeEnum5EE6offsetEPK15DataInformation@Base 4:14.12.0
 (optional=templinst)_ZNK18PrimitiveArrayDataIL21PrimitiveDataTypeEnum5EE7indexOfEPK15DataInformation@Base 4:14.12.0
 (optional=templinst)_ZNK18PrimitiveArrayDataIL21PrimitiveDataTypeEnum5EE7valueAtEi@Base 4:14.12.0
 (optional=templinst)_ZNK18PrimitiveArrayDataIL21PrimitiveDataTypeEnum5EE8typeNameEv@Base 4:14.12.0
 (optional=templinst)_ZNK18PrimitiveArrayDataIL21PrimitiveDataTypeEnum5EE9isComplexEv@Base 4:14.12.0
 (optional=templinst)_ZNK18PrimitiveArrayDataIL21PrimitiveDataTypeEnum6EE13primitiveTypeEv@Base 4:14.12.0
 (optional=templinst)_ZNK18PrimitiveArrayDataIL21PrimitiveDataTypeEnum6EE18setChildWidgetDataEjP7QWidget@Base 4:14.12.0
 (optional=templinst)_ZNK18PrimitiveArrayDataIL21PrimitiveDataTypeEnum6EE19dataFromChildWidgetEjPK7QWidget@Base 4:14.12.0
 (optional=templinst)_ZNK18PrimitiveArrayDataIL21PrimitiveDataTypeEnum6EE21createChildEditWidgetEjP7QWidget@Base 4:14.12.0
 (optional=templinst)_ZNK18PrimitiveArrayDataIL21PrimitiveDataTypeEnum6EE4sizeEv@Base 4:14.12.0
 (optional=templinst)_ZNK18PrimitiveArrayDataIL21PrimitiveDataTypeEnum6EE6lengthEv@Base 4:14.12.0
 (optional=templinst)_ZNK18PrimitiveArrayDataIL21PrimitiveDataTypeEnum6EE6offsetEPK15DataInformation@Base 4:14.12.0
 (optional=templinst)_ZNK18PrimitiveArrayDataIL21PrimitiveDataTypeEnum6EE7indexOfEPK15DataInformation@Base 4:14.12.0
 (optional=templinst)_ZNK18PrimitiveArrayDataIL21PrimitiveDataTypeEnum6EE7valueAtEi@Base 4:14.12.0
 (optional=templinst)_ZNK18PrimitiveArrayDataIL21PrimitiveDataTypeEnum6EE8typeNameEv@Base 4:14.12.0
 (optional=templinst)_ZNK18PrimitiveArrayDataIL21PrimitiveDataTypeEnum6EE9isComplexEv@Base 4:14.12.0
 (optional=templinst)_ZNK18PrimitiveArrayDataIL21PrimitiveDataTypeEnum7EE13primitiveTypeEv@Base 4:14.12.0
 (optional=templinst)_ZNK18PrimitiveArrayDataIL21PrimitiveDataTypeEnum7EE18setChildWidgetDataEjP7QWidget@Base 4:14.12.0
 (optional=templinst)_ZNK18PrimitiveArrayDataIL21PrimitiveDataTypeEnum7EE19dataFromChildWidgetEjPK7QWidget@Base 4:14.12.0
 (optional=templinst)_ZNK18PrimitiveArrayDataIL21PrimitiveDataTypeEnum7EE21createChildEditWidgetEjP7QWidget@Base 4:14.12.0
 (optional=templinst)_ZNK18PrimitiveArrayDataIL21PrimitiveDataTypeEnum7EE4sizeEv@Base 4:14.12.0
 (optional=templinst)_ZNK18PrimitiveArrayDataIL21PrimitiveDataTypeEnum7EE6lengthEv@Base 4:14.12.0
 (optional=templinst)_ZNK18PrimitiveArrayDataIL21PrimitiveDataTypeEnum7EE6offsetEPK15DataInformation@Base 4:14.12.0
 (optional=templinst)_ZNK18PrimitiveArrayDataIL21PrimitiveDataTypeEnum7EE7indexOfEPK15DataInformation@Base 4:14.12.0
 (optional=templinst)_ZNK18PrimitiveArrayDataIL21PrimitiveDataTypeEnum7EE7valueAtEi@Base 4:14.12.0
 (optional=templinst)_ZNK18PrimitiveArrayDataIL21PrimitiveDataTypeEnum7EE8typeNameEv@Base 4:14.12.0
 (optional=templinst)_ZNK18PrimitiveArrayDataIL21PrimitiveDataTypeEnum7EE9isComplexEv@Base 4:14.12.0
 (optional=templinst)_ZNK18PrimitiveArrayDataIL21PrimitiveDataTypeEnum8EE13primitiveTypeEv@Base 4:14.12.0
 (optional=templinst)_ZNK18PrimitiveArrayDataIL21PrimitiveDataTypeEnum8EE18setChildWidgetDataEjP7QWidget@Base 4:14.12.0
 (optional=templinst)_ZNK18PrimitiveArrayDataIL21PrimitiveDataTypeEnum8EE19dataFromChildWidgetEjPK7QWidget@Base 4:14.12.0
 (optional=templinst)_ZNK18PrimitiveArrayDataIL21PrimitiveDataTypeEnum8EE21createChildEditWidgetEjP7QWidget@Base 4:14.12.0
 (optional=templinst)_ZNK18PrimitiveArrayDataIL21PrimitiveDataTypeEnum8EE4sizeEv@Base 4:14.12.0
 (optional=templinst)_ZNK18PrimitiveArrayDataIL21PrimitiveDataTypeEnum8EE6lengthEv@Base 4:14.12.0
 (optional=templinst)_ZNK18PrimitiveArrayDataIL21PrimitiveDataTypeEnum8EE6offsetEPK15DataInformation@Base 4:14.12.0
 (optional=templinst)_ZNK18PrimitiveArrayDataIL21PrimitiveDataTypeEnum8EE7indexOfEPK15DataInformation@Base 4:14.12.0
 (optional=templinst)_ZNK18PrimitiveArrayDataIL21PrimitiveDataTypeEnum8EE7valueAtEi@Base 4:14.12.0
 (optional=templinst)_ZNK18PrimitiveArrayDataIL21PrimitiveDataTypeEnum8EE8typeNameEv@Base 4:14.12.0
 (optional=templinst)_ZNK18PrimitiveArrayDataIL21PrimitiveDataTypeEnum8EE9isComplexEv@Base 4:14.12.0
 (optional=templinst)_ZNK18PrimitiveArrayDataIL21PrimitiveDataTypeEnum9EE13primitiveTypeEv@Base 4:14.12.0
 (optional=templinst)_ZNK18PrimitiveArrayDataIL21PrimitiveDataTypeEnum9EE18setChildWidgetDataEjP7QWidget@Base 4:14.12.0
 (optional=templinst)_ZNK18PrimitiveArrayDataIL21PrimitiveDataTypeEnum9EE19dataFromChildWidgetEjPK7QWidget@Base 4:14.12.0
 (optional=templinst)_ZNK18PrimitiveArrayDataIL21PrimitiveDataTypeEnum9EE21createChildEditWidgetEjP7QWidget@Base 4:14.12.0
 (optional=templinst)_ZNK18PrimitiveArrayDataIL21PrimitiveDataTypeEnum9EE4sizeEv@Base 4:14.12.0
 (optional=templinst)_ZNK18PrimitiveArrayDataIL21PrimitiveDataTypeEnum9EE6lengthEv@Base 4:14.12.0
 (optional=templinst)_ZNK18PrimitiveArrayDataIL21PrimitiveDataTypeEnum9EE6offsetEPK15DataInformation@Base 4:14.12.0
 (optional=templinst)_ZNK18PrimitiveArrayDataIL21PrimitiveDataTypeEnum9EE7indexOfEPK15DataInformation@Base 4:14.12.0
 (optional=templinst)_ZNK18PrimitiveArrayDataIL21PrimitiveDataTypeEnum9EE7valueAtEi@Base 4:14.12.0
 (optional=templinst)_ZNK18PrimitiveArrayDataIL21PrimitiveDataTypeEnum9EE8typeNameEv@Base 4:14.12.0
 (optional=templinst)_ZNK18PrimitiveArrayDataIL21PrimitiveDataTypeEnum9EE9isComplexEv@Base 4:14.12.0
 _ZNK19DataInformationBase10asTopLevelEv@Base 4:14.12.0
 _ZNK19DataInformationBase10isBitfieldEv@Base 4:14.12.0
 _ZNK19DataInformationBase11isPrimitiveEv@Base 4:14.12.0
 _ZNK19DataInformationBase13isTaggedUnionEv@Base 4:14.12.0
 _ZNK19DataInformationBase29isDataInformationWithChildrenEv@Base 4:14.12.0
 _ZNK19DataInformationBase34isDataInformationWithDummyChildrenEv@Base 4:14.12.0
 _ZNK19DataInformationBase6isEnumEv@Base 4:14.12.0
 _ZNK19DataInformationBase7isArrayEv@Base 4:14.12.0
 _ZNK19DataInformationBase7isDummyEv@Base 4:14.12.0
 _ZNK19DataInformationBase7isUnionEv@Base 4:14.12.0
 _ZNK19DataInformationBase8isStringEv@Base 4:14.12.0
 _ZNK19DataInformationBase8isStructEv@Base 4:14.12.0
 _ZNK19DataInformationBase9isPointerEv@Base 4:14.12.0
 _ZNK19EnumDataInformation11scriptClassEP17ScriptHandlerInfo@Base 4:14.12.0
 _ZNK19EnumDataInformation12typeNameImplEv@Base 4:14.12.0
 _ZNK19EnumDataInformation15valueStringImplEv@Base 4:14.12.0
 _ZNK19EnumDataInformation5cloneEv@Base 4:14.12.0
 _ZNK19EnumDataInformation6isEnumEv@Base 4:14.12.0
 _ZNK19FlagDataInformation12typeNameImplEv@Base 4:14.12.0
 _ZNK19FlagDataInformation15valueStringImplEv@Base 4:14.12.0
 _ZNK19FlagDataInformation5cloneEv@Base 4:14.12.0
 _ZNK20AbstractValue8Editor10metaObjectEv@Base 4:14.12.0
 _ZNK20AbstractValue8Editor13textFromValueEi@Base 4:14.12.0
 _ZNK20AbstractValue8Editor13valueFromTextERK7QString@Base 4:14.12.0
 _ZNK20AbstractValue8Editor8validateER7QStringRi@Base 4:14.12.0
 _ZNK20ArrayDataInformation10childCountEv@Base 4:14.12.0
 _ZNK20ArrayDataInformation10childFlagsEiib@Base 4:14.12.0
 _ZNK20ArrayDataInformation11scriptClassEP17ScriptHandlerInfo@Base 4:14.12.0
 _ZNK20ArrayDataInformation12typeNameImplEv@Base 4:14.12.0
 _ZNK20ArrayDataInformation13childPositionEPK15DataInformationi@Base 4:14.12.0
 _ZNK20ArrayDataInformation13childTypeNameEj@Base 4:14.12.0
 _ZNK20ArrayDataInformation13setWidgetDataEP7QWidget@Base 4:14.12.0
 _ZNK20ArrayDataInformation14dataFromWidgetEPK7QWidget@Base 4:14.12.0
 _ZNK20ArrayDataInformation15canHaveChildrenEv@Base 4:14.12.0
 _ZNK20ArrayDataInformation16createEditWidgetEP7QWidget@Base 4:14.12.0
 _ZNK20ArrayDataInformation18childToScriptValueEjP13QScriptEngineP17ScriptHandlerInfo@Base 4:14.12.0
 _ZNK20ArrayDataInformation18setChildWidgetDataEjP7QWidget@Base 4:14.12.0
 _ZNK20ArrayDataInformation19dataFromChildWidgetEjPK7QWidget@Base 4:14.12.0
 _ZNK20ArrayDataInformation21createChildEditWidgetEjP7QWidget@Base 4:14.12.0
 _ZNK20ArrayDataInformation4sizeEv@Base 4:14.12.0
 _ZNK20ArrayDataInformation5cloneEv@Base 4:14.12.0
 _ZNK20ArrayDataInformation7childAtEj@Base 4:14.12.0
 _ZNK20ArrayDataInformation7indexOfEPK15DataInformation@Base 4:14.12.0
 _ZNK20ArrayDataInformation7isArrayEv@Base 4:14.12.0
 _ZNK20ArrayDataInformation9childDataEiii@Base 4:14.12.0
 _ZNK20ArrayDataInformation9childSizeEj@Base 4:14.12.0
 _ZNK20ArrayDataInformation9childTypeEv@Base 4:14.12.0
 _ZNK20DummyDataInformation10childCountEv@Base 4:14.12.0
 _ZNK20DummyDataInformation11scriptClassEP17ScriptHandlerInfo@Base 4:14.12.0
 _ZNK20DummyDataInformation12typeNameImplEv@Base 4:14.12.0
 _ZNK20DummyDataInformation13childPositionEPK15DataInformationi@Base 4:14.12.0
 _ZNK20DummyDataInformation13setWidgetDataEP7QWidget@Base 4:14.12.0
 _ZNK20DummyDataInformation14dataFromWidgetEPK7QWidget@Base 4:14.12.0
 _ZNK20DummyDataInformation15canHaveChildrenEv@Base 4:14.12.0
 _ZNK20DummyDataInformation16createEditWidgetEP7QWidget@Base 4:14.12.0
 _ZNK20DummyDataInformation4dataEii@Base 4:14.12.0
 _ZNK20DummyDataInformation4sizeEv@Base 4:14.12.0
 _ZNK20DummyDataInformation5cloneEv@Base 4:14.12.0
 _ZNK20DummyDataInformation5flagsEib@Base 4:14.12.0
 _ZNK20DummyDataInformation7childAtEj@Base 4:14.12.0
 _ZNK20DummyDataInformation7indexOfEPK15DataInformation@Base 4:14.12.0
 _ZNK20DummyDataInformation7isDummyEv@Base 4:14.12.0
 _ZNK20PrimitiveScriptClass9prototypeEv@Base 4:14.12.0
 _ZNK20UnionDataInformation12typeNameImplEv@Base 4:14.12.0
 _ZNK20UnionDataInformation13childPositionEPK15DataInformationi@Base 4:14.12.0
 _ZNK20UnionDataInformation4sizeEv@Base 4:14.12.0
 _ZNK20UnionDataInformation5cloneEv@Base 4:14.12.0
 _ZNK20UnionDataInformation7isUnionEv@Base 4:14.12.0
 _ZNK21StringDataInformation10childCountEv@Base 4:14.12.0
 _ZNK21StringDataInformation10childFlagsEiib@Base 4:14.12.0
 _ZNK21StringDataInformation11scriptClassEP17ScriptHandlerInfo@Base 4:14.12.0
 _ZNK21StringDataInformation12typeNameImplEv@Base 4:14.12.0
 _ZNK21StringDataInformation13childPositionEPK15DataInformationi@Base 4:14.12.0
 _ZNK21StringDataInformation13childTypeNameEj@Base 4:14.12.0
 _ZNK21StringDataInformation13setWidgetDataEP7QWidget@Base 4:14.12.0
 _ZNK21StringDataInformation14dataFromWidgetEPK7QWidget@Base 4:14.12.0
 _ZNK21StringDataInformation15canHaveChildrenEv@Base 4:14.12.0
 _ZNK21StringDataInformation15valueStringImplEv@Base 4:14.12.0
 _ZNK21StringDataInformation16createEditWidgetEP7QWidget@Base 4:14.12.0
 _ZNK21StringDataInformation18childToScriptValueEjP13QScriptEngineP17ScriptHandlerInfo@Base 4:14.12.0
 _ZNK21StringDataInformation18setChildWidgetDataEjP7QWidget@Base 4:14.12.0
 _ZNK21StringDataInformation19dataFromChildWidgetEjPK7QWidget@Base 4:14.12.0
 _ZNK21StringDataInformation21createChildEditWidgetEjP7QWidget@Base 4:14.12.0
 _ZNK21StringDataInformation4dataEii@Base 4:14.12.0
 _ZNK21StringDataInformation4sizeEv@Base 4:14.12.0
 _ZNK21StringDataInformation5cloneEv@Base 4:14.12.0
 _ZNK21StringDataInformation5flagsEib@Base 4:14.12.0
 _ZNK21StringDataInformation7childAtEj@Base 4:14.12.0
 _ZNK21StringDataInformation8isStringEv@Base 4:14.12.0
 _ZNK21StringDataInformation9childDataEiii@Base 4:14.12.0
 _ZNK21StringDataInformation9childSizeEj@Base 4:14.12.0
 _ZNK22PointerDataInformation10childCountEv@Base 4:14.12.0
 _ZNK22PointerDataInformation11scriptClassEP17ScriptHandlerInfo@Base 4:14.12.0
 _ZNK22PointerDataInformation12typeNameImplEv@Base 4:14.12.0
 _ZNK22PointerDataInformation13childPositionEPK15DataInformationi@Base 4:14.12.0
 _ZNK22PointerDataInformation15canHaveChildrenEv@Base 4:14.12.0
 _ZNK22PointerDataInformation15valueStringImplEv@Base 4:14.12.0
 _ZNK22PointerDataInformation5cloneEv@Base 4:14.12.0
 _ZNK22PointerDataInformation7childAtEj@Base 4:14.12.0
 _ZNK22PointerDataInformation7indexOfEPK15DataInformation@Base 4:14.12.0
 _ZNK22PointerDataInformation9isPointerEv@Base 4:14.12.0
 _ZNK22StructUnionScriptClass9prototypeEv@Base 4:14.12.0
 _ZNK23TopLevelDataInformation10isTopLevelEv@Base 4:14.12.0
 _ZNK23TopLevelDataInformation10metaObjectEv@Base 4:14.12.0
 _ZNK23TopLevelDataInformation11isLockedForEPKN6Okteta22AbstractByteArrayModelE@Base 4:14.12.0
 _ZNK23TopLevelDataInformation12scriptEngineEv@Base 4:14.12.0
 _ZNK23TopLevelDataInformation15lockPositionForEPKN6Okteta22AbstractByteArrayModelE@Base 4:14.12.0
 _ZNK23TopLevelDataInformation17isLockedByDefaultEv@Base 4:14.12.0
 _ZNK23TopLevelDataInformation7indexOfEPK15DataInformation@Base 4:14.12.0
 _ZNK24PrimitiveDataInformation10childCountEv@Base 4:14.12.0
 _ZNK24PrimitiveDataInformation11isPrimitiveEv@Base 4:14.12.0
 _ZNK24PrimitiveDataInformation13childPositionEPK15DataInformationi@Base 4:14.12.0
 _ZNK24PrimitiveDataInformation15canHaveChildrenEv@Base 4:14.12.0
 _ZNK24PrimitiveDataInformation5flagsEib@Base 4:14.12.0
 _ZNK24PrimitiveDataInformation6offsetEj@Base 4:14.12.0
 _ZNK24PrimitiveDataInformation7childAtEj@Base 4:14.12.0
 _ZNK24PrimitiveDataInformation7indexOfEPK15DataInformation@Base 4:14.12.0
 _ZNK24StructureDataInformation12typeNameImplEv@Base 4:14.12.0
 _ZNK24StructureDataInformation13childPositionEPK15DataInformationi@Base 4:14.12.0
 _ZNK24StructureDataInformation5cloneEv@Base 4:14.12.0
 _ZNK24StructureDataInformation8isStructEv@Base 4:14.12.0
 _ZNK26DefaultscriptClassIterator11hasPreviousEv@Base 4:14.12.0
 _ZNK26DefaultscriptClassIterator2idEv@Base 4:14.12.0
 _ZNK26DefaultscriptClassIterator4nameEv@Base 4:14.12.0
 _ZNK26DefaultscriptClassIterator5flagsEv@Base 4:14.12.0
 _ZNK26DefaultscriptClassIterator7hasNextEv@Base 4:14.12.0
 _ZNK26TaggedUnionDataInformation10childCountEv@Base 4:14.12.0
 _ZNK26TaggedUnionDataInformation12typeNameImplEv@Base 4:14.12.0
 _ZNK26TaggedUnionDataInformation13childPositionEPK15DataInformationi@Base 4:14.12.0
 _ZNK26TaggedUnionDataInformation13isTaggedUnionEv@Base 4:14.12.0
 _ZNK26TaggedUnionDataInformation4sizeEv@Base 4:14.12.0
 _ZNK26TaggedUnionDataInformation5cloneEv@Base 4:14.12.0
 _ZNK26TaggedUnionDataInformation7childAtEj@Base 4:14.12.0
 _ZNK26TaggedUnionDataInformation7indexOfEPK15DataInformation@Base 4:14.12.0
 _ZNK27BoolBitfieldDataInformation12bitfieldTypeEv@Base 4:14.12.0
 _ZNK27BoolBitfieldDataInformation12typeNameImplEv@Base 4:14.12.0
 _ZNK27BoolBitfieldDataInformation13setWidgetDataEP7QWidget@Base 4:14.12.0
 _ZNK27BoolBitfieldDataInformation14dataFromWidgetEPK7QWidget@Base 4:14.12.0
 _ZNK27BoolBitfieldDataInformation15valueStringImplEv@Base 4:14.12.0
 _ZNK27BoolBitfieldDataInformation16createEditWidgetEP7QWidget@Base 4:14.12.0
 _ZNK27BoolBitfieldDataInformation19valueAsQScriptValueEv@Base 4:14.12.0
 _ZNK27BoolBitfieldDataInformation5cloneEv@Base 4:14.12.0
 _ZNK27DataInformationWithChildren10childCountEv@Base 4:14.12.0
 _ZNK27DataInformationWithChildren11scriptClassEP17ScriptHandlerInfo@Base 4:14.12.0
 _ZNK27DataInformationWithChildren13setWidgetDataEP7QWidget@Base 4:14.12.0
 _ZNK27DataInformationWithChildren13tooltipStringEv@Base 4:14.12.0
 _ZNK27DataInformationWithChildren14dataFromWidgetEPK7QWidget@Base 4:14.12.0
 _ZNK27DataInformationWithChildren15canHaveChildrenEv@Base 4:14.12.0
 _ZNK27DataInformationWithChildren16createEditWidgetEP7QWidget@Base 4:14.12.0
 _ZNK27DataInformationWithChildren29isDataInformationWithChildrenEv@Base 4:14.12.0
 _ZNK27DataInformationWithChildren4sizeEv@Base 4:14.12.0
 _ZNK27DataInformationWithChildren7childAtEj@Base 4:14.12.0
 _ZNK27DataInformationWithChildren7indexOfEPK15DataInformation@Base 4:14.12.0
 _ZNK27DataInformationWithChildren9childDataEiii@Base 4:14.12.0
 (optional=templinst)_ZNK29BasicPrimitiveDataInformationIa26SIntDataInformationMethodsIaEE11scriptClassEP17ScriptHandlerInfo@Base 4:14.12.0
 (optional=templinst)_ZNK29BasicPrimitiveDataInformationIa26SIntDataInformationMethodsIaEE12typeNameImplEv@Base 4:14.12.0
 (optional=templinst)_ZNK29BasicPrimitiveDataInformationIa26SIntDataInformationMethodsIaEE13setWidgetDataEP7QWidget@Base 4:14.12.0
 (optional=templinst)_ZNK29BasicPrimitiveDataInformationIa26SIntDataInformationMethodsIaEE14dataFromWidgetEPK7QWidget@Base 4:14.12.0
 (optional=templinst)_ZNK29BasicPrimitiveDataInformationIa26SIntDataInformationMethodsIaEE15valueStringImplEv@Base 4:14.12.0
 (optional=templinst)_ZNK29BasicPrimitiveDataInformationIa26SIntDataInformationMethodsIaEE16createEditWidgetEP7QWidget@Base 4:14.12.0
 (optional=templinst)_ZNK29BasicPrimitiveDataInformationIa26SIntDataInformationMethodsIaEE19valueAsQScriptValueEv@Base 4:14.12.0
 (optional=templinst)_ZNK29BasicPrimitiveDataInformationIa26SIntDataInformationMethodsIaEE4sizeEv@Base 4:14.12.0
 (optional=templinst)_ZNK29BasicPrimitiveDataInformationIa26SIntDataInformationMethodsIaEE4typeEv@Base 4:14.12.0
 (optional=templinst)_ZNK29BasicPrimitiveDataInformationIa26SIntDataInformationMethodsIaEE5cloneEv@Base 4:14.12.0
 (optional=templinst)_ZNK29BasicPrimitiveDataInformationIa26SIntDataInformationMethodsIaEE5valueEv@Base 4:14.12.0
 (optional=templinst)_ZNK29BasicPrimitiveDataInformationId28DoubleDataInformationMethodsE11scriptClassEP17ScriptHandlerInfo@Base 4:14.12.0
 (optional=templinst)_ZNK29BasicPrimitiveDataInformationId28DoubleDataInformationMethodsE12typeNameImplEv@Base 4:14.12.0
 (optional=templinst)_ZNK29BasicPrimitiveDataInformationId28DoubleDataInformationMethodsE13setWidgetDataEP7QWidget@Base 4:14.12.0
 (optional=templinst)_ZNK29BasicPrimitiveDataInformationId28DoubleDataInformationMethodsE14dataFromWidgetEPK7QWidget@Base 4:14.12.0
 (optional=templinst)_ZNK29BasicPrimitiveDataInformationId28DoubleDataInformationMethodsE15valueStringImplEv@Base 4:14.12.0
 (optional=templinst)_ZNK29BasicPrimitiveDataInformationId28DoubleDataInformationMethodsE16createEditWidgetEP7QWidget@Base 4:14.12.0
 (optional=templinst)_ZNK29BasicPrimitiveDataInformationId28DoubleDataInformationMethodsE19valueAsQScriptValueEv@Base 4:14.12.0
 (optional=templinst)_ZNK29BasicPrimitiveDataInformationId28DoubleDataInformationMethodsE4sizeEv@Base 4:14.12.0
 (optional=templinst)_ZNK29BasicPrimitiveDataInformationId28DoubleDataInformationMethodsE4typeEv@Base 4:14.12.0
 (optional=templinst)_ZNK29BasicPrimitiveDataInformationId28DoubleDataInformationMethodsE5cloneEv@Base 4:14.12.0
 (optional=templinst)_ZNK29BasicPrimitiveDataInformationId28DoubleDataInformationMethodsE5valueEv@Base 4:14.12.0
 (optional=templinst)_ZNK29BasicPrimitiveDataInformationIf27FloatDataInformationMethodsE11scriptClassEP17ScriptHandlerInfo@Base 4:14.12.0
 (optional=templinst)_ZNK29BasicPrimitiveDataInformationIf27FloatDataInformationMethodsE12typeNameImplEv@Base 4:14.12.0
 (optional=templinst)_ZNK29BasicPrimitiveDataInformationIf27FloatDataInformationMethodsE13setWidgetDataEP7QWidget@Base 4:14.12.0
 (optional=templinst)_ZNK29BasicPrimitiveDataInformationIf27FloatDataInformationMethodsE14dataFromWidgetEPK7QWidget@Base 4:14.12.0
 (optional=templinst)_ZNK29BasicPrimitiveDataInformationIf27FloatDataInformationMethodsE15valueStringImplEv@Base 4:14.12.0
 (optional=templinst)_ZNK29BasicPrimitiveDataInformationIf27FloatDataInformationMethodsE16createEditWidgetEP7QWidget@Base 4:14.12.0
 (optional=templinst)_ZNK29BasicPrimitiveDataInformationIf27FloatDataInformationMethodsE19valueAsQScriptValueEv@Base 4:14.12.0
 (optional=templinst)_ZNK29BasicPrimitiveDataInformationIf27FloatDataInformationMethodsE4sizeEv@Base 4:14.12.0
 (optional=templinst)_ZNK29BasicPrimitiveDataInformationIf27FloatDataInformationMethodsE4typeEv@Base 4:14.12.0
 (optional=templinst)_ZNK29BasicPrimitiveDataInformationIf27FloatDataInformationMethodsE5cloneEv@Base 4:14.12.0
 (optional=templinst)_ZNK29BasicPrimitiveDataInformationIf27FloatDataInformationMethodsE5valueEv@Base 4:14.12.0
 (optional=templinst)_ZNK29BasicPrimitiveDataInformationIh26BoolDataInformationMethodsIhEE11scriptClassEP17ScriptHandlerInfo@Base 4:14.12.0
 (optional=templinst)_ZNK29BasicPrimitiveDataInformationIh26BoolDataInformationMethodsIhEE12typeNameImplEv@Base 4:14.12.0
 (optional=templinst)_ZNK29BasicPrimitiveDataInformationIh26BoolDataInformationMethodsIhEE13setWidgetDataEP7QWidget@Base 4:14.12.0
 (optional=templinst)_ZNK29BasicPrimitiveDataInformationIh26BoolDataInformationMethodsIhEE14dataFromWidgetEPK7QWidget@Base 4:14.12.0
 (optional=templinst)_ZNK29BasicPrimitiveDataInformationIh26BoolDataInformationMethodsIhEE15valueStringImplEv@Base 4:14.12.0
 (optional=templinst)_ZNK29BasicPrimitiveDataInformationIh26BoolDataInformationMethodsIhEE16createEditWidgetEP7QWidget@Base 4:14.12.0
 (optional=templinst)_ZNK29BasicPrimitiveDataInformationIh26BoolDataInformationMethodsIhEE19valueAsQScriptValueEv@Base 4:14.12.0
 (optional=templinst)_ZNK29BasicPrimitiveDataInformationIh26BoolDataInformationMethodsIhEE4sizeEv@Base 4:14.12.0
 (optional=templinst)_ZNK29BasicPrimitiveDataInformationIh26BoolDataInformationMethodsIhEE4typeEv@Base 4:14.12.0
 (optional=templinst)_ZNK29BasicPrimitiveDataInformationIh26BoolDataInformationMethodsIhEE5cloneEv@Base 4:14.12.0
 (optional=templinst)_ZNK29BasicPrimitiveDataInformationIh26BoolDataInformationMethodsIhEE5valueEv@Base 4:14.12.0
 (optional=templinst)_ZNK29BasicPrimitiveDataInformationIh26CharDataInformationMethodsE11scriptClassEP17ScriptHandlerInfo@Base 4:14.12.0
 (optional=templinst)_ZNK29BasicPrimitiveDataInformationIh26CharDataInformationMethodsE12typeNameImplEv@Base 4:14.12.0
 (optional=templinst)_ZNK29BasicPrimitiveDataInformationIh26CharDataInformationMethodsE13setWidgetDataEP7QWidget@Base 4:14.12.0
 (optional=templinst)_ZNK29BasicPrimitiveDataInformationIh26CharDataInformationMethodsE14dataFromWidgetEPK7QWidget@Base 4:14.12.0
 (optional=templinst)_ZNK29BasicPrimitiveDataInformationIh26CharDataInformationMethodsE15valueStringImplEv@Base 4:14.12.0
 (optional=templinst)_ZNK29BasicPrimitiveDataInformationIh26CharDataInformationMethodsE16createEditWidgetEP7QWidget@Base 4:14.12.0
 (optional=templinst)_ZNK29BasicPrimitiveDataInformationIh26CharDataInformationMethodsE19valueAsQScriptValueEv@Base 4:14.12.0
 (optional=templinst)_ZNK29BasicPrimitiveDataInformationIh26CharDataInformationMethodsE4sizeEv@Base 4:14.12.0
 (optional=templinst)_ZNK29BasicPrimitiveDataInformationIh26CharDataInformationMethodsE4typeEv@Base 4:14.12.0
 (optional=templinst)_ZNK29BasicPrimitiveDataInformationIh26CharDataInformationMethodsE5cloneEv@Base 4:14.12.0
 (optional=templinst)_ZNK29BasicPrimitiveDataInformationIh26CharDataInformationMethodsE5valueEv@Base 4:14.12.0
 (optional=templinst)_ZNK29BasicPrimitiveDataInformationIh26UIntDataInformationMethodsIhEE11scriptClassEP17ScriptHandlerInfo@Base 4:14.12.0
 (optional=templinst)_ZNK29BasicPrimitiveDataInformationIh26UIntDataInformationMethodsIhEE12typeNameImplEv@Base 4:14.12.0
 (optional=templinst)_ZNK29BasicPrimitiveDataInformationIh26UIntDataInformationMethodsIhEE13setWidgetDataEP7QWidget@Base 4:14.12.0
 (optional=templinst)_ZNK29BasicPrimitiveDataInformationIh26UIntDataInformationMethodsIhEE14dataFromWidgetEPK7QWidget@Base 4:14.12.0
 (optional=templinst)_ZNK29BasicPrimitiveDataInformationIh26UIntDataInformationMethodsIhEE15valueStringImplEv@Base 4:14.12.0
 (optional=templinst)_ZNK29BasicPrimitiveDataInformationIh26UIntDataInformationMethodsIhEE16createEditWidgetEP7QWidget@Base 4:14.12.0
 (optional=templinst)_ZNK29BasicPrimitiveDataInformationIh26UIntDataInformationMethodsIhEE19valueAsQScriptValueEv@Base 4:14.12.0
 (optional=templinst)_ZNK29BasicPrimitiveDataInformationIh26UIntDataInformationMethodsIhEE4sizeEv@Base 4:14.12.0
 (optional=templinst)_ZNK29BasicPrimitiveDataInformationIh26UIntDataInformationMethodsIhEE4typeEv@Base 4:14.12.0
 (optional=templinst)_ZNK29BasicPrimitiveDataInformationIh26UIntDataInformationMethodsIhEE5cloneEv@Base 4:14.12.0
 (optional=templinst)_ZNK29BasicPrimitiveDataInformationIh26UIntDataInformationMethodsIhEE5valueEv@Base 4:14.12.0
 (optional=templinst)_ZNK29BasicPrimitiveDataInformationIi26SIntDataInformationMethodsIiEE11scriptClassEP17ScriptHandlerInfo@Base 4:14.12.0
 (optional=templinst)_ZNK29BasicPrimitiveDataInformationIi26SIntDataInformationMethodsIiEE12typeNameImplEv@Base 4:14.12.0
 (optional=templinst)_ZNK29BasicPrimitiveDataInformationIi26SIntDataInformationMethodsIiEE13setWidgetDataEP7QWidget@Base 4:14.12.0
 (optional=templinst)_ZNK29BasicPrimitiveDataInformationIi26SIntDataInformationMethodsIiEE14dataFromWidgetEPK7QWidget@Base 4:14.12.0
 (optional=templinst)_ZNK29BasicPrimitiveDataInformationIi26SIntDataInformationMethodsIiEE15valueStringImplEv@Base 4:14.12.0
 (optional=templinst)_ZNK29BasicPrimitiveDataInformationIi26SIntDataInformationMethodsIiEE16createEditWidgetEP7QWidget@Base 4:14.12.0
 (optional=templinst)_ZNK29BasicPrimitiveDataInformationIi26SIntDataInformationMethodsIiEE19valueAsQScriptValueEv@Base 4:14.12.0
 (optional=templinst)_ZNK29BasicPrimitiveDataInformationIi26SIntDataInformationMethodsIiEE4sizeEv@Base 4:14.12.0
 (optional=templinst)_ZNK29BasicPrimitiveDataInformationIi26SIntDataInformationMethodsIiEE4typeEv@Base 4:14.12.0
 (optional=templinst)_ZNK29BasicPrimitiveDataInformationIi26SIntDataInformationMethodsIiEE5cloneEv@Base 4:14.12.0
 (optional=templinst)_ZNK29BasicPrimitiveDataInformationIi26SIntDataInformationMethodsIiEE5valueEv@Base 4:14.12.0
 (optional=templinst)_ZNK29BasicPrimitiveDataInformationIj26BoolDataInformationMethodsIjEE11scriptClassEP17ScriptHandlerInfo@Base 4:14.12.0
 (optional=templinst)_ZNK29BasicPrimitiveDataInformationIj26BoolDataInformationMethodsIjEE12typeNameImplEv@Base 4:14.12.0
 (optional=templinst)_ZNK29BasicPrimitiveDataInformationIj26BoolDataInformationMethodsIjEE13setWidgetDataEP7QWidget@Base 4:14.12.0
 (optional=templinst)_ZNK29BasicPrimitiveDataInformationIj26BoolDataInformationMethodsIjEE14dataFromWidgetEPK7QWidget@Base 4:14.12.0
 (optional=templinst)_ZNK29BasicPrimitiveDataInformationIj26BoolDataInformationMethodsIjEE15valueStringImplEv@Base 4:14.12.0
 (optional=templinst)_ZNK29BasicPrimitiveDataInformationIj26BoolDataInformationMethodsIjEE16createEditWidgetEP7QWidget@Base 4:14.12.0
 (optional=templinst)_ZNK29BasicPrimitiveDataInformationIj26BoolDataInformationMethodsIjEE19valueAsQScriptValueEv@Base 4:14.12.0
 (optional=templinst)_ZNK29BasicPrimitiveDataInformationIj26BoolDataInformationMethodsIjEE4sizeEv@Base 4:14.12.0
 (optional=templinst)_ZNK29BasicPrimitiveDataInformationIj26BoolDataInformationMethodsIjEE4typeEv@Base 4:14.12.0
 (optional=templinst)_ZNK29BasicPrimitiveDataInformationIj26BoolDataInformationMethodsIjEE5cloneEv@Base 4:14.12.0
 (optional=templinst)_ZNK29BasicPrimitiveDataInformationIj26BoolDataInformationMethodsIjEE5valueEv@Base 4:14.12.0
 (optional=templinst)_ZNK29BasicPrimitiveDataInformationIj26UIntDataInformationMethodsIjEE11scriptClassEP17ScriptHandlerInfo@Base 4:14.12.0
 (optional=templinst)_ZNK29BasicPrimitiveDataInformationIj26UIntDataInformationMethodsIjEE12typeNameImplEv@Base 4:14.12.0
 (optional=templinst)_ZNK29BasicPrimitiveDataInformationIj26UIntDataInformationMethodsIjEE13setWidgetDataEP7QWidget@Base 4:14.12.0
 (optional=templinst)_ZNK29BasicPrimitiveDataInformationIj26UIntDataInformationMethodsIjEE14dataFromWidgetEPK7QWidget@Base 4:14.12.0
 (optional=templinst)_ZNK29BasicPrimitiveDataInformationIj26UIntDataInformationMethodsIjEE15valueStringImplEv@Base 4:14.12.0
 (optional=templinst)_ZNK29BasicPrimitiveDataInformationIj26UIntDataInformationMethodsIjEE16createEditWidgetEP7QWidget@Base 4:14.12.0
 (optional=templinst)_ZNK29BasicPrimitiveDataInformationIj26UIntDataInformationMethodsIjEE19valueAsQScriptValueEv@Base 4:14.12.0
 (optional=templinst)_ZNK29BasicPrimitiveDataInformationIj26UIntDataInformationMethodsIjEE4sizeEv@Base 4:14.12.0
 (optional=templinst)_ZNK29BasicPrimitiveDataInformationIj26UIntDataInformationMethodsIjEE4typeEv@Base 4:14.12.0
 (optional=templinst)_ZNK29BasicPrimitiveDataInformationIj26UIntDataInformationMethodsIjEE5cloneEv@Base 4:14.12.0
 (optional=templinst)_ZNK29BasicPrimitiveDataInformationIj26UIntDataInformationMethodsIjEE5valueEv@Base 4:14.12.0
 (optional=templinst)_ZNK29BasicPrimitiveDataInformationIs26SIntDataInformationMethodsIsEE11scriptClassEP17ScriptHandlerInfo@Base 4:14.12.0
 (optional=templinst)_ZNK29BasicPrimitiveDataInformationIs26SIntDataInformationMethodsIsEE12typeNameImplEv@Base 4:14.12.0
 (optional=templinst)_ZNK29BasicPrimitiveDataInformationIs26SIntDataInformationMethodsIsEE13setWidgetDataEP7QWidget@Base 4:14.12.0
 (optional=templinst)_ZNK29BasicPrimitiveDataInformationIs26SIntDataInformationMethodsIsEE14dataFromWidgetEPK7QWidget@Base 4:14.12.0
 (optional=templinst)_ZNK29BasicPrimitiveDataInformationIs26SIntDataInformationMethodsIsEE15valueStringImplEv@Base 4:14.12.0
 (optional=templinst)_ZNK29BasicPrimitiveDataInformationIs26SIntDataInformationMethodsIsEE16createEditWidgetEP7QWidget@Base 4:14.12.0
 (optional=templinst)_ZNK29BasicPrimitiveDataInformationIs26SIntDataInformationMethodsIsEE19valueAsQScriptValueEv@Base 4:14.12.0
 (optional=templinst)_ZNK29BasicPrimitiveDataInformationIs26SIntDataInformationMethodsIsEE4sizeEv@Base 4:14.12.0
 (optional=templinst)_ZNK29BasicPrimitiveDataInformationIs26SIntDataInformationMethodsIsEE4typeEv@Base 4:14.12.0
 (optional=templinst)_ZNK29BasicPrimitiveDataInformationIs26SIntDataInformationMethodsIsEE5cloneEv@Base 4:14.12.0
 (optional=templinst)_ZNK29BasicPrimitiveDataInformationIs26SIntDataInformationMethodsIsEE5valueEv@Base 4:14.12.0
 (optional=templinst)_ZNK29BasicPrimitiveDataInformationIt26BoolDataInformationMethodsItEE11scriptClassEP17ScriptHandlerInfo@Base 4:14.12.0
 (optional=templinst)_ZNK29BasicPrimitiveDataInformationIt26BoolDataInformationMethodsItEE12typeNameImplEv@Base 4:14.12.0
 (optional=templinst)_ZNK29BasicPrimitiveDataInformationIt26BoolDataInformationMethodsItEE13setWidgetDataEP7QWidget@Base 4:14.12.0
 (optional=templinst)_ZNK29BasicPrimitiveDataInformationIt26BoolDataInformationMethodsItEE14dataFromWidgetEPK7QWidget@Base 4:14.12.0
 (optional=templinst)_ZNK29BasicPrimitiveDataInformationIt26BoolDataInformationMethodsItEE15valueStringImplEv@Base 4:14.12.0
 (optional=templinst)_ZNK29BasicPrimitiveDataInformationIt26BoolDataInformationMethodsItEE16createEditWidgetEP7QWidget@Base 4:14.12.0
 (optional=templinst)_ZNK29BasicPrimitiveDataInformationIt26BoolDataInformationMethodsItEE19valueAsQScriptValueEv@Base 4:14.12.0
 (optional=templinst)_ZNK29BasicPrimitiveDataInformationIt26BoolDataInformationMethodsItEE4sizeEv@Base 4:14.12.0
 (optional=templinst)_ZNK29BasicPrimitiveDataInformationIt26BoolDataInformationMethodsItEE4typeEv@Base 4:14.12.0
 (optional=templinst)_ZNK29BasicPrimitiveDataInformationIt26BoolDataInformationMethodsItEE5cloneEv@Base 4:14.12.0
 (optional=templinst)_ZNK29BasicPrimitiveDataInformationIt26BoolDataInformationMethodsItEE5valueEv@Base 4:14.12.0
 (optional=templinst)_ZNK29BasicPrimitiveDataInformationIt26UIntDataInformationMethodsItEE11scriptClassEP17ScriptHandlerInfo@Base 4:14.12.0
 (optional=templinst)_ZNK29BasicPrimitiveDataInformationIt26UIntDataInformationMethodsItEE12typeNameImplEv@Base 4:14.12.0
 (optional=templinst)_ZNK29BasicPrimitiveDataInformationIt26UIntDataInformationMethodsItEE13setWidgetDataEP7QWidget@Base 4:14.12.0
 (optional=templinst)_ZNK29BasicPrimitiveDataInformationIt26UIntDataInformationMethodsItEE14dataFromWidgetEPK7QWidget@Base 4:14.12.0
 (optional=templinst)_ZNK29BasicPrimitiveDataInformationIt26UIntDataInformationMethodsItEE15valueStringImplEv@Base 4:14.12.0
 (optional=templinst)_ZNK29BasicPrimitiveDataInformationIt26UIntDataInformationMethodsItEE16createEditWidgetEP7QWidget@Base 4:14.12.0
 (optional=templinst)_ZNK29BasicPrimitiveDataInformationIt26UIntDataInformationMethodsItEE19valueAsQScriptValueEv@Base 4:14.12.0
 (optional=templinst)_ZNK29BasicPrimitiveDataInformationIt26UIntDataInformationMethodsItEE4sizeEv@Base 4:14.12.0
 (optional=templinst)_ZNK29BasicPrimitiveDataInformationIt26UIntDataInformationMethodsItEE4typeEv@Base 4:14.12.0
 (optional=templinst)_ZNK29BasicPrimitiveDataInformationIt26UIntDataInformationMethodsItEE5cloneEv@Base 4:14.12.0
 (optional=templinst)_ZNK29BasicPrimitiveDataInformationIt26UIntDataInformationMethodsItEE5valueEv@Base 4:14.12.0
 (optional=templinst)_ZNK29BasicPrimitiveDataInformationIx26SIntDataInformationMethodsIxEE11scriptClassEP17ScriptHandlerInfo@Base 4:14.12.0
 (optional=templinst)_ZNK29BasicPrimitiveDataInformationIx26SIntDataInformationMethodsIxEE12typeNameImplEv@Base 4:14.12.0
 (optional=templinst)_ZNK29BasicPrimitiveDataInformationIx26SIntDataInformationMethodsIxEE13setWidgetDataEP7QWidget@Base 4:14.12.0
 (optional=templinst)_ZNK29BasicPrimitiveDataInformationIx26SIntDataInformationMethodsIxEE14dataFromWidgetEPK7QWidget@Base 4:14.12.0
 (optional=templinst)_ZNK29BasicPrimitiveDataInformationIx26SIntDataInformationMethodsIxEE15valueStringImplEv@Base 4:14.12.0
 (optional=templinst)_ZNK29BasicPrimitiveDataInformationIx26SIntDataInformationMethodsIxEE16createEditWidgetEP7QWidget@Base 4:14.12.0
 (optional=templinst)_ZNK29BasicPrimitiveDataInformationIx26SIntDataInformationMethodsIxEE19valueAsQScriptValueEv@Base 4:14.12.0
 (optional=templinst)_ZNK29BasicPrimitiveDataInformationIx26SIntDataInformationMethodsIxEE4sizeEv@Base 4:14.12.0
 (optional=templinst)_ZNK29BasicPrimitiveDataInformationIx26SIntDataInformationMethodsIxEE4typeEv@Base 4:14.12.0
 (optional=templinst)_ZNK29BasicPrimitiveDataInformationIx26SIntDataInformationMethodsIxEE5cloneEv@Base 4:14.12.0
 (optional=templinst)_ZNK29BasicPrimitiveDataInformationIx26SIntDataInformationMethodsIxEE5valueEv@Base 4:14.12.0
 (optional=templinst)_ZNK29BasicPrimitiveDataInformationIy26BoolDataInformationMethodsIyEE11scriptClassEP17ScriptHandlerInfo@Base 4:14.12.0
 (optional=templinst)_ZNK29BasicPrimitiveDataInformationIy26BoolDataInformationMethodsIyEE12typeNameImplEv@Base 4:14.12.0
 (optional=templinst)_ZNK29BasicPrimitiveDataInformationIy26BoolDataInformationMethodsIyEE13setWidgetDataEP7QWidget@Base 4:14.12.0
 (optional=templinst)_ZNK29BasicPrimitiveDataInformationIy26BoolDataInformationMethodsIyEE14dataFromWidgetEPK7QWidget@Base 4:14.12.0
 (optional=templinst)_ZNK29BasicPrimitiveDataInformationIy26BoolDataInformationMethodsIyEE15valueStringImplEv@Base 4:14.12.0
 (optional=templinst)_ZNK29BasicPrimitiveDataInformationIy26BoolDataInformationMethodsIyEE16createEditWidgetEP7QWidget@Base 4:14.12.0
 (optional=templinst)_ZNK29BasicPrimitiveDataInformationIy26BoolDataInformationMethodsIyEE19valueAsQScriptValueEv@Base 4:14.12.0
 (optional=templinst)_ZNK29BasicPrimitiveDataInformationIy26BoolDataInformationMethodsIyEE4sizeEv@Base 4:14.12.0
 (optional=templinst)_ZNK29BasicPrimitiveDataInformationIy26BoolDataInformationMethodsIyEE4typeEv@Base 4:14.12.0
 (optional=templinst)_ZNK29BasicPrimitiveDataInformationIy26BoolDataInformationMethodsIyEE5cloneEv@Base 4:14.12.0
 (optional=templinst)_ZNK29BasicPrimitiveDataInformationIy26BoolDataInformationMethodsIyEE5valueEv@Base 4:14.12.0
 (optional=templinst)_ZNK29BasicPrimitiveDataInformationIy26UIntDataInformationMethodsIyEE11scriptClassEP17ScriptHandlerInfo@Base 4:14.12.0
 (optional=templinst)_ZNK29BasicPrimitiveDataInformationIy26UIntDataInformationMethodsIyEE12typeNameImplEv@Base 4:14.12.0
 (optional=templinst)_ZNK29BasicPrimitiveDataInformationIy26UIntDataInformationMethodsIyEE13setWidgetDataEP7QWidget@Base 4:14.12.0
 (optional=templinst)_ZNK29BasicPrimitiveDataInformationIy26UIntDataInformationMethodsIyEE14dataFromWidgetEPK7QWidget@Base 4:14.12.0
 (optional=templinst)_ZNK29BasicPrimitiveDataInformationIy26UIntDataInformationMethodsIyEE15valueStringImplEv@Base 4:14.12.0
 (optional=templinst)_ZNK29BasicPrimitiveDataInformationIy26UIntDataInformationMethodsIyEE16createEditWidgetEP7QWidget@Base 4:14.12.0
 (optional=templinst)_ZNK29BasicPrimitiveDataInformationIy26UIntDataInformationMethodsIyEE19valueAsQScriptValueEv@Base 4:14.12.0
 (optional=templinst)_ZNK29BasicPrimitiveDataInformationIy26UIntDataInformationMethodsIyEE4sizeEv@Base 4:14.12.0
 (optional=templinst)_ZNK29BasicPrimitiveDataInformationIy26UIntDataInformationMethodsIyEE4typeEv@Base 4:14.12.0
 (optional=templinst)_ZNK29BasicPrimitiveDataInformationIy26UIntDataInformationMethodsIyEE5cloneEv@Base 4:14.12.0
 (optional=templinst)_ZNK29BasicPrimitiveDataInformationIy26UIntDataInformationMethodsIyEE5valueEv@Base 4:14.12.0
 _ZNK29SignedBitfieldDataInformation11fromVariantERK8QVariantPb@Base 4:14.12.0
 _ZNK29SignedBitfieldDataInformation12bitfieldTypeEv@Base 4:14.12.0
 _ZNK29SignedBitfieldDataInformation12typeNameImplEv@Base 4:14.12.0
 _ZNK29SignedBitfieldDataInformation13setWidgetDataEP7QWidget@Base 4:14.12.0
 _ZNK29SignedBitfieldDataInformation14dataFromWidgetEPK7QWidget@Base 4:14.12.0
 _ZNK29SignedBitfieldDataInformation15valueStringImplEv@Base 4:14.12.0
 _ZNK29SignedBitfieldDataInformation16createEditWidgetEP7QWidget@Base 4:14.12.0
 _ZNK29SignedBitfieldDataInformation19valueAsQScriptValueEv@Base 4:14.12.0
 _ZNK29SignedBitfieldDataInformation5cloneEv@Base 4:14.12.0
 _ZNK31AbstractBitfieldDataInformation10isBitfieldEv@Base 4:14.12.0
 _ZNK31AbstractBitfieldDataInformation10sizeStringEv@Base 4:14.12.0
 _ZNK31AbstractBitfieldDataInformation11fromVariantERK8QVariantPb@Base 4:14.12.0
 _ZNK31AbstractBitfieldDataInformation11scriptClassEP17ScriptHandlerInfo@Base 4:14.12.0
 _ZNK31AbstractBitfieldDataInformation4sizeEv@Base 4:14.12.0
 _ZNK31AbstractBitfieldDataInformation4typeEv@Base 4:14.12.0
 _ZNK31AbstractBitfieldDataInformation5flagsEib@Base 4:14.12.0
 _ZNK31AbstractBitfieldDataInformation5valueEv@Base 4:14.12.0
 _ZNK31PrimitiveDataInformationWrapper13setWidgetDataEP7QWidget@Base 4:14.12.0
 _ZNK31PrimitiveDataInformationWrapper14dataFromWidgetEPK7QWidget@Base 4:14.12.0
 _ZNK31PrimitiveDataInformationWrapper16createEditWidgetEP7QWidget@Base 4:14.12.0
 _ZNK31PrimitiveDataInformationWrapper19valueAsQScriptValueEv@Base 4:14.12.0
 _ZNK31PrimitiveDataInformationWrapper4sizeEv@Base 4:14.12.0
 _ZNK31PrimitiveDataInformationWrapper4typeEv@Base 4:14.12.0
 _ZNK31PrimitiveDataInformationWrapper5valueEv@Base 4:14.12.0
 _ZNK31UnsignedBitfieldDataInformation12bitfieldTypeEv@Base 4:14.12.0
 _ZNK31UnsignedBitfieldDataInformation12typeNameImplEv@Base 4:14.12.0
 _ZNK31UnsignedBitfieldDataInformation13setWidgetDataEP7QWidget@Base 4:14.12.0
 _ZNK31UnsignedBitfieldDataInformation14dataFromWidgetEPK7QWidget@Base 4:14.12.0
 _ZNK31UnsignedBitfieldDataInformation15valueStringImplEv@Base 4:14.12.0
 _ZNK31UnsignedBitfieldDataInformation16createEditWidgetEP7QWidget@Base 4:14.12.0
 _ZNK31UnsignedBitfieldDataInformation19valueAsQScriptValueEv@Base 4:14.12.0
 _ZNK31UnsignedBitfieldDataInformation5cloneEv@Base 4:14.12.0
 (arch=armel armhf)_ZNK32DataInformationWithDummyChildren34isDataInformationWithDummyChildrenEv@Base 4:15.08.0
 (arch=armel armhf)_ZNK32DataInformationWithDummyChildren7indexOfEPK15DataInformation@Base 4:15.08.0
 (optional=templinst)_ZNK5QHashIP15DataInformationP13SafeReferenceE8findNodeERKS1_Pj@Base 4:14.12.0
 (optional=templinst)_ZNK5QHashIPKN6Okteta22AbstractByteArrayModelEyE8findNodeERKS3_Pj@Base 4:14.12.0
 (optional=templinst)_ZNK5QHashIi8QVariantE8findNodeERKiPj@Base 4:14.12.0
 (optional=templinst)_ZNK5QHashIihE8findNodeERKiPj@Base 4:14.12.0
 _ZNK6Kasten10FilterTool10filterListEv@Base 4:14.12.0
 _ZNK6Kasten10FilterTool10metaObjectEv@Base 4:14.12.0
 _ZNK6Kasten10FilterTool12hasWriteableEv@Base 4:14.12.0
 _ZNK6Kasten10FilterTool13charCodecNameEv@Base 4:14.12.0
 _ZNK6Kasten10FilterTool5titleEv@Base 4:14.12.0
 _ZNK6Kasten10FilterTool6filterEi@Base 4:14.12.0
 _ZNK6Kasten10StructTool10childCountEv@Base 4:14.12.0
 _ZNK6Kasten10StructTool10metaObjectEv@Base 4:14.12.0
 _ZNK6Kasten10StructTool12isFileLoadedEv@Base 4:14.12.0
 _ZNK6Kasten10StructTool14byteArrayModelEv@Base 4:14.12.0
 _ZNK6Kasten10StructTool17isStructureLockedERK11QModelIndex@Base 4:14.12.0
 _ZNK6Kasten10StructTool20canStructureBeLockedERK11QModelIndex@Base 4:14.12.0
 _ZNK6Kasten10StructTool5titleEv@Base 4:14.12.0
 _ZNK6Kasten10StructTool7allDataEv@Base 4:14.12.0
 _ZNK6Kasten10StructTool7childAtEi@Base 4:14.12.0
 _ZNK6Kasten10StructTool7managerEv@Base 4:14.12.0
 _ZNK6Kasten10StructTool9byteOrderEv@Base 4:14.12.0
 _ZNK6Kasten12ChecksumTool10metaObjectEv@Base 4:14.12.0
 _ZNK6Kasten12ChecksumTool11isApplyableEv@Base 4:14.12.0
 _ZNK6Kasten12ChecksumTool13algorithmListEv@Base 4:14.12.0
 _ZNK6Kasten12ChecksumTool5titleEv@Base 4:14.12.0
 _ZNK6Kasten12InfoToolView4toolEv@Base 4:14.12.0
 _ZNK6Kasten12InfoToolView5titleEv@Base 4:14.12.0
 _ZNK6Kasten12InfoToolView6widgetEv@Base 4:14.12.0
 _ZNK6Kasten13BookmarksTool10bookmarkAtEj@Base 4:14.12.0
 _ZNK6Kasten13BookmarksTool10metaObjectEv@Base 4:14.12.0
 _ZNK6Kasten13BookmarksTool12offsetCodingEv@Base 4:14.12.0
 _ZNK6Kasten13BookmarksTool14bookmarksCountEv@Base 4:14.12.0
 _ZNK6Kasten13BookmarksTool17canCreateBookmarkEv@Base 4:14.12.0
 _ZNK6Kasten13BookmarksTool5titleEv@Base 4:14.12.0
 _ZNK6Kasten13BookmarksTool7indexOfERKN6Okteta8BookmarkE@Base 4:14.12.0
 _ZNK6Kasten13ByteTableTool10metaObjectEv@Base 4:14.12.0
 _ZNK6Kasten13ByteTableTool12hasWriteableEv@Base 4:14.12.0
 _ZNK6Kasten13ByteTableTool14byteTableModelEv@Base 4:14.12.0
 _ZNK6Kasten13ByteTableTool5titleEv@Base 4:14.12.0
 _ZNK6Kasten14FilterToolView4toolEv@Base 4:14.12.0
 _ZNK6Kasten14FilterToolView5titleEv@Base 4:14.12.0
 _ZNK6Kasten14FilterToolView6widgetEv@Base 4:14.12.0
 _ZNK6Kasten14PODDecoderTool10isReadOnlyEv@Base 4:14.12.0
 _ZNK6Kasten14PODDecoderTool10metaObjectEv@Base 4:14.12.0
 _ZNK6Kasten14PODDecoderTool11isApplyableEv@Base 4:14.12.0
 _ZNK6Kasten14PODDecoderTool5titleEv@Base 4:14.12.0
 _ZNK6Kasten14PODDecoderTool5valueEi@Base 4:14.12.0
 _ZNK6Kasten14PODDecoderTool8podCountEv@Base 4:14.12.0
 _ZNK6Kasten14PODDecoderTool9nameOfPODEi@Base 4:14.12.0
 _ZNK6Kasten14StructToolView4toolEv@Base 4:14.12.0
 _ZNK6Kasten14StructToolView5titleEv@Base 4:14.12.0
 _ZNK6Kasten14StructToolView6widgetEv@Base 4:14.12.0
 _ZNK6Kasten15PrintController10metaObjectEv@Base 4:14.12.0
 _ZNK6Kasten16ChecksumToolView4toolEv@Base 4:14.12.0
 _ZNK6Kasten16ChecksumToolView5titleEv@Base 4:14.12.0
 _ZNK6Kasten16ChecksumToolView6widgetEv@Base 4:14.12.0
 _ZNK6Kasten16DocumentInfoTool10metaObjectEv@Base 4:14.12.0
 _ZNK6Kasten16DocumentInfoTool12documentSizeEv@Base 4:14.12.0
 _ZNK6Kasten16DocumentInfoTool13documentTitleEv@Base 4:14.12.0
 _ZNK6Kasten16DocumentInfoTool5titleEv@Base 4:14.12.0
 _ZNK6Kasten16DocumentInfoTool8locationEv@Base 4:14.12.0
 _ZNK6Kasten16SearchController10metaObjectEv@Base 4:14.12.0
 _ZNK6Kasten16SearchController13queryContinueENS_14KFindDirectionE@Base 4:14.12.0
 _ZNK6Kasten17BookmarksToolView4toolEv@Base 4:14.12.0
 _ZNK6Kasten17BookmarksToolView5titleEv@Base 4:14.12.0
 _ZNK6Kasten17BookmarksToolView6widgetEv@Base 4:14.12.0
 _ZNK6Kasten17ByteTableToolView4toolEv@Base 4:14.12.0
 _ZNK6Kasten17ByteTableToolView5titleEv@Base 4:14.12.0
 _ZNK6Kasten17ByteTableToolView6widgetEv@Base 4:14.12.0
 _ZNK6Kasten17ReplaceController10metaObjectEv@Base 4:14.12.0
 _ZNK6Kasten17ReplaceController13queryContinueENS_14KFindDirectionEi@Base 4:14.12.0
 _ZNK6Kasten17ReplaceController19queryReplaceCurrentEv@Base 4:14.12.0
 _ZNK6Kasten18PODDecoderToolView4toolEv@Base 4:14.12.0
 _ZNK6Kasten18PODDecoderToolView5titleEv@Base 4:14.12.0
 _ZNK6Kasten18PODDecoderToolView6widgetEv@Base 4:14.12.0
 _ZNK6Kasten18StringsExtractTool10metaObjectEv@Base 4:14.12.0
 _ZNK6Kasten18StringsExtractTool11isApplyableEv@Base 4:14.12.0
 _ZNK6Kasten18StringsExtractTool12offsetCodingEv@Base 4:14.12.0
 _ZNK6Kasten18StringsExtractTool18canHighlightStringEv@Base 4:14.12.0
 _ZNK6Kasten18StringsExtractTool5titleEv@Base 4:14.12.0
 _ZNK6Kasten18ViewModeController10metaObjectEv@Base 4:14.12.0
 _ZNK6Kasten19BookmarksController10metaObjectEv@Base 4:14.12.0
 _ZNK6Kasten19InfoToolViewFactory15defaultPositionEv@Base 4:14.12.0
 _ZNK6Kasten19InfoToolViewFactory2idEv@Base 4:14.12.0
 _ZNK6Kasten19InfoToolViewFactory5titleEv@Base 4:14.12.0
 _ZNK6Kasten19InfoToolViewFactory8iconNameEv@Base 4:14.12.0
 _ZNK6Kasten20DocumentInfoToolView4toolEv@Base 4:14.12.0
 _ZNK6Kasten20DocumentInfoToolView5titleEv@Base 4:14.12.0
 _ZNK6Kasten20DocumentInfoToolView6widgetEv@Base 4:14.12.0
 _ZNK6Kasten20GotoOffsetController10metaObjectEv@Base 4:14.12.0
 _ZNK6Kasten20ViewConfigController10metaObjectEv@Base 4:14.12.0
 _ZNK6Kasten20ViewStatusController10metaObjectEv@Base 4:14.12.0
 _ZNK6Kasten21CharsetConversionTool10metaObjectEv@Base 4:14.12.0
 _ZNK6Kasten21CharsetConversionTool11isApplyableEv@Base 4:14.12.0
 _ZNK6Kasten21CharsetConversionTool14substituteByteEv@Base 4:14.12.0
 _ZNK6Kasten21CharsetConversionTool18otherCharCodecNameEv@Base 4:14.12.0
 _ZNK6Kasten21CharsetConversionTool19conversionDirectionEv@Base 4:14.12.0
 _ZNK6Kasten21CharsetConversionTool26isSubstitutingMissingCharsEv@Base 4:14.12.0
 _ZNK6Kasten21CharsetConversionTool5titleEv@Base 4:14.12.0
 _ZNK6Kasten21FilterToolViewFactory15defaultPositionEv@Base 4:14.12.0
 _ZNK6Kasten21FilterToolViewFactory2idEv@Base 4:14.12.0
 _ZNK6Kasten21FilterToolViewFactory5titleEv@Base 4:14.12.0
 _ZNK6Kasten21FilterToolViewFactory8iconNameEv@Base 4:14.12.0
 _ZNK6Kasten21SelectRangeController10metaObjectEv@Base 4:14.12.0
 _ZNK6Kasten21ViewProfileController10metaObjectEv@Base 4:14.12.0
 _ZNK6Kasten22StringsExtractToolView4toolEv@Base 4:14.12.0
 _ZNK6Kasten22StringsExtractToolView5titleEv@Base 4:14.12.0
 _ZNK6Kasten22StringsExtractToolView6widgetEv@Base 4:14.12.0
 _ZNK6Kasten23ChecksumToolViewFactory15defaultPositionEv@Base 4:14.12.0
 _ZNK6Kasten23ChecksumToolViewFactory2idEv@Base 4:14.12.0
 _ZNK6Kasten23ChecksumToolViewFactory5titleEv@Base 4:14.12.0
 _ZNK6Kasten23ChecksumToolViewFactory8iconNameEv@Base 4:14.12.0
 _ZNK6Kasten23OverwriteModeController10metaObjectEv@Base 4:14.12.0
 _ZNK6Kasten24BookmarksToolViewFactory15defaultPositionEv@Base 4:14.12.0
 _ZNK6Kasten24BookmarksToolViewFactory2idEv@Base 4:14.12.0
 _ZNK6Kasten24BookmarksToolViewFactory5titleEv@Base 4:14.12.0
 _ZNK6Kasten24BookmarksToolViewFactory8iconNameEv@Base 4:14.12.0
 _ZNK6Kasten24ByteTableToolViewFactory15defaultPositionEv@Base 4:14.12.0
 _ZNK6Kasten24ByteTableToolViewFactory2idEv@Base 4:14.12.0
 _ZNK6Kasten24ByteTableToolViewFactory5titleEv@Base 4:14.12.0
 _ZNK6Kasten24ByteTableToolViewFactory8iconNameEv@Base 4:14.12.0
 _ZNK6Kasten25CharsetConversionToolView4toolEv@Base 4:14.12.0
 _ZNK6Kasten25CharsetConversionToolView5titleEv@Base 4:14.12.0
 _ZNK6Kasten25CharsetConversionToolView6widgetEv@Base 4:14.12.0
 _ZNK6Kasten25PodDecoderToolViewFactory15defaultPositionEv@Base 4:14.12.0
 _ZNK6Kasten25PodDecoderToolViewFactory2idEv@Base 4:14.12.0
 _ZNK6Kasten25PodDecoderToolViewFactory5titleEv@Base 4:14.12.0
 _ZNK6Kasten25PodDecoderToolViewFactory8iconNameEv@Base 4:14.12.0
 _ZNK6Kasten25StructuresToolViewFactory15defaultPositionEv@Base 4:14.12.0
 _ZNK6Kasten25StructuresToolViewFactory2idEv@Base 4:14.12.0
 _ZNK6Kasten25StructuresToolViewFactory5titleEv@Base 4:14.12.0
 _ZNK6Kasten25StructuresToolViewFactory8iconNameEv@Base 4:14.12.0
 _ZNK6Kasten28ViewProfilesManageController10metaObjectEv@Base 4:14.12.0
 _ZNK6Kasten29StringsExtractToolViewFactory15defaultPositionEv@Base 4:14.12.0
 _ZNK6Kasten29StringsExtractToolViewFactory2idEv@Base 4:14.12.0
 _ZNK6Kasten29StringsExtractToolViewFactory5titleEv@Base 4:14.12.0
 _ZNK6Kasten29StringsExtractToolViewFactory8iconNameEv@Base 4:14.12.0
 _ZNK6Kasten32CharsetConversionToolViewFactory15defaultPositionEv@Base 4:14.12.0
 _ZNK6Kasten32CharsetConversionToolViewFactory2idEv@Base 4:14.12.0
 _ZNK6Kasten32CharsetConversionToolViewFactory5titleEv@Base 4:14.12.0
 _ZNK6Kasten32CharsetConversionToolViewFactory8iconNameEv@Base 4:14.12.0
 _ZNK6Kasten8InfoTool10metaObjectEv@Base 4:14.12.0
 _ZNK6Kasten8InfoTool11isApplyableEv@Base 4:14.12.0
 _ZNK6Kasten8InfoTool19isStatisticUptodateEv@Base 4:14.12.0
 _ZNK6Kasten8InfoTool19statisticTableModelEv@Base 4:14.12.0
 _ZNK6Kasten8InfoTool4sizeEv@Base 4:14.12.0
 _ZNK6Kasten8InfoTool5titleEv@Base 4:14.12.0
 (optional=templinst)_ZNK8QMapNodeI17AllPrimitiveTypes7QStringE4copyEP8QMapDataIS0_S1_E@Base 4:14.12.0
 _ZNK9OsdParser15openDocFromFileEP12ScriptLogger@Base 4:14.12.0
 _ZNK9OsdParser15parseStructuresEv@Base 4:14.12.0
 _ZNK9OsdParser17openDocFromStringEP12ScriptLogger@Base 4:14.12.0
 _ZNK9OsdParser19parseStructureNamesEv@Base 4:14.12.0
 _ZNK9OsdParser7openDocEP12ScriptLogger@Base 4:14.12.0
 _ZTI10StringData@Base 4:15.04.0
 _ZTI10Utf8Editor@Base 4:15.04.0
 _ZTI11Char8Editor@Base 4:15.04.0
 (arch=!armel !armhf)_ZTI11QSharedData@Base 4:15.08.0
 _ZTI11SIntSpinBox@Base 4:15.04.0
 _ZTI11UIntSpinBox@Base 4:15.04.0
 _ZTI12Octal8Editor@Base 4:15.04.0
 _ZTI12ScriptLogger@Base 4:15.04.0
 _ZTI13Binary8Editor@Base 4:15.04.0
 _ZTI13Float32Editor@Base 4:15.04.0
 _ZTI13Float64Editor@Base 4:15.04.0
 _ZTI13ScriptHandler@Base 4:15.04.0
 _ZTI14Char8Validator@Base 4:15.04.0
 _ZTI14ChildrenParser@Base 4:15.04.0
 _ZTI14Utf8StringData@Base 4:15.04.0
 _ZTI15AsciiStringData@Base 4:15.04.0
 _ZTI15DataInformation@Base 4:15.04.0
 _ZTI15EnumScriptClass@Base 4:15.04.0
 _ZTI15Utf16StringData@Base 4:15.04.0
 _ZTI15Utf32StringData@Base 4:15.04.0
 _ZTI16ArrayScriptClass@Base 4:15.04.0
 _ZTI16ComplexArrayData@Base 4:15.04.0
 _ZTI16Latin1StringData@Base 4:15.04.0
 _ZTI16ScriptFileParser@Base 4:15.04.0
 _ZTI16ScriptLoggerView@Base 4:15.04.0
 _ZTI17AbstractArrayData@Base 4:15.04.0
 _ZTI17OsdChildrenParser@Base 4:15.04.0
 _ZTI17StringScriptClass@Base 4:15.04.0
 _ZTI17Utf8CharValidator@Base 4:15.04.0
 _ZTI18DefaultScriptClass@Base 4:15.04.0
 _ZTI18Hexadecimal8Editor@Base 4:15.04.0
 _ZTI18PointerScriptClass@Base 4:15.04.0
 _ZTI18PrimitiveArrayDataIL21PrimitiveDataTypeEnum0EE@Base 4:15.04.0
 _ZTI18PrimitiveArrayDataIL21PrimitiveDataTypeEnum10EE@Base 4:15.04.0
 _ZTI18PrimitiveArrayDataIL21PrimitiveDataTypeEnum11EE@Base 4:15.04.0
 _ZTI18PrimitiveArrayDataIL21PrimitiveDataTypeEnum12EE@Base 4:15.04.0
 _ZTI18PrimitiveArrayDataIL21PrimitiveDataTypeEnum13EE@Base 4:15.04.0
 _ZTI18PrimitiveArrayDataIL21PrimitiveDataTypeEnum14EE@Base 4:15.04.0
 _ZTI18PrimitiveArrayDataIL21PrimitiveDataTypeEnum1EE@Base 4:15.04.0
 _ZTI18PrimitiveArrayDataIL21PrimitiveDataTypeEnum2EE@Base 4:15.04.0
 _ZTI18PrimitiveArrayDataIL21PrimitiveDataTypeEnum3EE@Base 4:15.04.0
 _ZTI18PrimitiveArrayDataIL21PrimitiveDataTypeEnum4EE@Base 4:15.04.0
 _ZTI18PrimitiveArrayDataIL21PrimitiveDataTypeEnum5EE@Base 4:15.04.0
 _ZTI18PrimitiveArrayDataIL21PrimitiveDataTypeEnum6EE@Base 4:15.04.0
 _ZTI18PrimitiveArrayDataIL21PrimitiveDataTypeEnum7EE@Base 4:15.04.0
 _ZTI18PrimitiveArrayDataIL21PrimitiveDataTypeEnum8EE@Base 4:15.04.0
 _ZTI18PrimitiveArrayDataIL21PrimitiveDataTypeEnum9EE@Base 4:15.04.0
 _ZTI19BitfieldScriptClass@Base 4:15.04.0
 _ZTI19DataInformationBase@Base 4:15.04.0
 _ZTI19EnumDataInformation@Base 4:15.04.0
 _ZTI19FlagDataInformation@Base 4:15.04.0
 _ZTI20AbstractValue8Editor@Base 4:15.04.0
 _ZTI20ArrayDataInformation@Base 4:15.04.0
 _ZTI20DummyDataInformation@Base 4:15.04.0
 _ZTI20PrimitiveScriptClass@Base 4:15.04.0
 _ZTI20UnionDataInformation@Base 4:15.04.0
 _ZTI21StringDataInformation@Base 4:15.04.0
 _ZTI22PointerDataInformation@Base 4:15.04.0
 _ZTI22StructUnionScriptClass@Base 4:15.04.0
 _ZTI23AbstractStructureParser@Base 4:15.04.0
 _ZTI23TopLevelDataInformation@Base 4:15.04.0
 _ZTI24PrimitiveDataInformation@Base 4:15.04.0
 _ZTI24StructureDataInformation@Base 4:15.04.0
 _ZTI26DefaultscriptClassIterator@Base 4:15.04.0
 _ZTI26TaggedUnionDataInformation@Base 4:15.04.0
 _ZTI27BoolBitfieldDataInformation@Base 4:15.04.0
 _ZTI27DataInformationWithChildren@Base 4:15.04.0
 _ZTI29BasicPrimitiveDataInformationIa26SIntDataInformationMethodsIaEE@Base 4:15.04.0
 _ZTI29BasicPrimitiveDataInformationId28DoubleDataInformationMethodsE@Base 4:15.04.0
 _ZTI29BasicPrimitiveDataInformationIf27FloatDataInformationMethodsE@Base 4:15.04.0
 _ZTI29BasicPrimitiveDataInformationIh26BoolDataInformationMethodsIhEE@Base 4:15.04.0
 _ZTI29BasicPrimitiveDataInformationIh26CharDataInformationMethodsE@Base 4:15.04.0
 _ZTI29BasicPrimitiveDataInformationIh26UIntDataInformationMethodsIhEE@Base 4:15.04.0
 _ZTI29BasicPrimitiveDataInformationIi26SIntDataInformationMethodsIiEE@Base 4:15.04.0
 _ZTI29BasicPrimitiveDataInformationIj26BoolDataInformationMethodsIjEE@Base 4:15.04.0
 _ZTI29BasicPrimitiveDataInformationIj26UIntDataInformationMethodsIjEE@Base 4:15.04.0
 _ZTI29BasicPrimitiveDataInformationIs26SIntDataInformationMethodsIsEE@Base 4:15.04.0
 _ZTI29BasicPrimitiveDataInformationIt26BoolDataInformationMethodsItEE@Base 4:15.04.0
 _ZTI29BasicPrimitiveDataInformationIt26UIntDataInformationMethodsItEE@Base 4:15.04.0
 _ZTI29BasicPrimitiveDataInformationIx26SIntDataInformationMethodsIxEE@Base 4:15.04.0
 _ZTI29BasicPrimitiveDataInformationIy26BoolDataInformationMethodsIyEE@Base 4:15.04.0
 _ZTI29BasicPrimitiveDataInformationIy26UIntDataInformationMethodsIyEE@Base 4:15.04.0
 _ZTI29SignedBitfieldDataInformation@Base 4:15.04.0
 _ZTI30SingleElementOsdChildrenParser@Base 4:15.04.0
 _ZTI31AbstractBitfieldDataInformation@Base 4:15.04.0
 _ZTI31PrimitiveDataInformationWrapper@Base 4:15.04.0
 _ZTI31UnsignedBitfieldDataInformation@Base 4:15.04.0
 (arch=armel armhf)_ZTI32DataInformationWithDummyChildren@Base 4:15.08.0
 _ZTI9OsdParser@Base 4:15.04.0
 _ZTIN20ScriptValueConverter25ScriptValueChildrenParserE@Base 4:15.04.0
 _ZTIN6Kasten10FilterToolE@Base 4:15.04.0
 _ZTIN6Kasten10StructToolE@Base 4:15.04.0
 _ZTIN6Kasten12ChecksumToolE@Base 4:15.04.0
 _ZTIN6Kasten12InfoToolViewE@Base 4:15.04.0
 _ZTIN6Kasten13BookmarksToolE@Base 4:15.04.0
 _ZTIN6Kasten13ByteTableToolE@Base 4:15.04.0
 _ZTIN6Kasten14FilterToolViewE@Base 4:15.04.0
 _ZTIN6Kasten14PODDecoderToolE@Base 4:15.04.0
 _ZTIN6Kasten14StructToolViewE@Base 4:15.04.0
 _ZTIN6Kasten15InfoToolFactoryE@Base 4:15.04.0
 _ZTIN6Kasten15PrintControllerE@Base 4:15.04.0
 _ZTIN6Kasten16ChecksumToolViewE@Base 4:15.04.0
 _ZTIN6Kasten16DocumentInfoToolE@Base 4:15.04.0
 _ZTIN6Kasten16SearchControllerE@Base 4:15.04.0
 _ZTIN6Kasten17BookmarksToolViewE@Base 4:15.04.0
 _ZTIN6Kasten17ByteTableToolViewE@Base 4:15.04.0
 _ZTIN6Kasten17FilterToolFactoryE@Base 4:15.04.0
 _ZTIN6Kasten17ReplaceControllerE@Base 4:15.04.0
 _ZTIN6Kasten18PODDecoderToolViewE@Base 4:15.04.0
 _ZTIN6Kasten18StringsExtractToolE@Base 4:15.04.0
 _ZTIN6Kasten18ViewModeControllerE@Base 4:15.04.0
 _ZTIN6Kasten19BookmarksControllerE@Base 4:15.04.0
 _ZTIN6Kasten19ChecksumToolFactoryE@Base 4:15.04.0
 _ZTIN6Kasten19InfoToolViewFactoryE@Base 4:15.04.0
 _ZTIN6Kasten20BookmarksToolFactoryE@Base 4:15.04.0
 _ZTIN6Kasten20ByteTableToolFactoryE@Base 4:15.04.0
 _ZTIN6Kasten20DocumentInfoToolViewE@Base 4:15.04.0
 _ZTIN6Kasten20GotoOffsetControllerE@Base 4:15.04.0
 _ZTIN6Kasten20ViewConfigControllerE@Base 4:15.04.0
 _ZTIN6Kasten20ViewStatusControllerE@Base 4:15.04.0
 _ZTIN6Kasten21CharsetConversionToolE@Base 4:15.04.0
 _ZTIN6Kasten21FilterToolViewFactoryE@Base 4:15.04.0
 _ZTIN6Kasten21PodDecoderToolFactoryE@Base 4:15.04.0
 _ZTIN6Kasten21SelectRangeControllerE@Base 4:15.04.0
 _ZTIN6Kasten21StructViewPreferencesE@Base 4:15.04.0
 _ZTIN6Kasten21StructuresToolFactoryE@Base 4:15.04.0
 _ZTIN6Kasten21ViewProfileControllerE@Base 4:15.04.0
 _ZTIN6Kasten22StringsExtractToolViewE@Base 4:15.04.0
 _ZTIN6Kasten23ChecksumToolViewFactoryE@Base 4:15.04.0
 _ZTIN6Kasten23OverwriteModeControllerE@Base 4:15.04.0
 _ZTIN6Kasten24BookmarksToolViewFactoryE@Base 4:15.04.0
 _ZTIN6Kasten24ByteTableToolViewFactoryE@Base 4:15.04.0
 _ZTIN6Kasten25CharsetConversionToolViewE@Base 4:15.04.0
 _ZTIN6Kasten25PodDecoderToolViewFactoryE@Base 4:15.04.0
 _ZTIN6Kasten25StringsExtractToolFactoryE@Base 4:15.04.0
 _ZTIN6Kasten25StructuresToolViewFactoryE@Base 4:15.04.0
 _ZTIN6Kasten28CharsetConversionToolFactoryE@Base 4:15.04.0
 _ZTIN6Kasten28ViewProfilesManageControllerE@Base 4:15.04.0
 _ZTIN6Kasten29StringsExtractToolViewFactoryE@Base 4:15.04.0
 _ZTIN6Kasten32CharsetConversionToolViewFactoryE@Base 4:15.04.0
 _ZTIN6Kasten8InfoToolE@Base 4:15.04.0
 _ZTS10StringData@Base 4:15.04.0
 _ZTS10Utf8Editor@Base 4:15.04.0
 _ZTS11Char8Editor@Base 4:15.04.0
 (arch=!armel !armhf)_ZTS11QSharedData@Base 4:15.08.0
 _ZTS11SIntSpinBox@Base 4:15.04.0
 _ZTS11UIntSpinBox@Base 4:15.04.0
 _ZTS12Octal8Editor@Base 4:15.04.0
 _ZTS12ScriptLogger@Base 4:15.04.0
 _ZTS13Binary8Editor@Base 4:15.04.0
 _ZTS13Float32Editor@Base 4:15.04.0
 _ZTS13Float64Editor@Base 4:15.04.0
 _ZTS13ScriptHandler@Base 4:15.04.0
 _ZTS14Char8Validator@Base 4:15.04.0
 _ZTS14ChildrenParser@Base 4:15.04.0
 _ZTS14Utf8StringData@Base 4:15.04.0
 _ZTS15AsciiStringData@Base 4:15.04.0
 _ZTS15DataInformation@Base 4:15.04.0
 _ZTS15EnumScriptClass@Base 4:15.04.0
 _ZTS15Utf16StringData@Base 4:15.04.0
 _ZTS15Utf32StringData@Base 4:15.04.0
 _ZTS16ArrayScriptClass@Base 4:15.04.0
 _ZTS16ComplexArrayData@Base 4:15.04.0
 _ZTS16Latin1StringData@Base 4:15.04.0
 _ZTS16ScriptFileParser@Base 4:15.04.0
 _ZTS16ScriptLoggerView@Base 4:15.04.0
 _ZTS17AbstractArrayData@Base 4:15.04.0
 _ZTS17OsdChildrenParser@Base 4:15.04.0
 _ZTS17StringScriptClass@Base 4:15.04.0
 _ZTS17Utf8CharValidator@Base 4:15.04.0
 _ZTS18DefaultScriptClass@Base 4:15.04.0
 _ZTS18Hexadecimal8Editor@Base 4:15.04.0
 _ZTS18PointerScriptClass@Base 4:15.04.0
 _ZTS18PrimitiveArrayDataIL21PrimitiveDataTypeEnum0EE@Base 4:15.04.0
 _ZTS18PrimitiveArrayDataIL21PrimitiveDataTypeEnum10EE@Base 4:15.04.0
 _ZTS18PrimitiveArrayDataIL21PrimitiveDataTypeEnum11EE@Base 4:15.04.0
 _ZTS18PrimitiveArrayDataIL21PrimitiveDataTypeEnum12EE@Base 4:15.04.0
 _ZTS18PrimitiveArrayDataIL21PrimitiveDataTypeEnum13EE@Base 4:15.04.0
 _ZTS18PrimitiveArrayDataIL21PrimitiveDataTypeEnum14EE@Base 4:15.04.0
 _ZTS18PrimitiveArrayDataIL21PrimitiveDataTypeEnum1EE@Base 4:15.04.0
 _ZTS18PrimitiveArrayDataIL21PrimitiveDataTypeEnum2EE@Base 4:15.04.0
 _ZTS18PrimitiveArrayDataIL21PrimitiveDataTypeEnum3EE@Base 4:15.04.0
 _ZTS18PrimitiveArrayDataIL21PrimitiveDataTypeEnum4EE@Base 4:15.04.0
 _ZTS18PrimitiveArrayDataIL21PrimitiveDataTypeEnum5EE@Base 4:15.04.0
 _ZTS18PrimitiveArrayDataIL21PrimitiveDataTypeEnum6EE@Base 4:15.04.0
 _ZTS18PrimitiveArrayDataIL21PrimitiveDataTypeEnum7EE@Base 4:15.04.0
 _ZTS18PrimitiveArrayDataIL21PrimitiveDataTypeEnum8EE@Base 4:15.04.0
 _ZTS18PrimitiveArrayDataIL21PrimitiveDataTypeEnum9EE@Base 4:15.04.0
 _ZTS19BitfieldScriptClass@Base 4:15.04.0
 _ZTS19DataInformationBase@Base 4:15.04.0
 _ZTS19EnumDataInformation@Base 4:15.04.0
 _ZTS19FlagDataInformation@Base 4:15.04.0
 _ZTS20AbstractValue8Editor@Base 4:15.04.0
 _ZTS20ArrayDataInformation@Base 4:15.04.0
 _ZTS20DummyDataInformation@Base 4:15.04.0
 _ZTS20PrimitiveScriptClass@Base 4:15.04.0
 _ZTS20UnionDataInformation@Base 4:15.04.0
 _ZTS21StringDataInformation@Base 4:15.04.0
 _ZTS22PointerDataInformation@Base 4:15.04.0
 _ZTS22StructUnionScriptClass@Base 4:15.04.0
 _ZTS23AbstractStructureParser@Base 4:15.04.0
 _ZTS23TopLevelDataInformation@Base 4:15.04.0
 _ZTS24PrimitiveDataInformation@Base 4:15.04.0
 _ZTS24StructureDataInformation@Base 4:15.04.0
 _ZTS26DefaultscriptClassIterator@Base 4:15.04.0
 _ZTS26TaggedUnionDataInformation@Base 4:15.04.0
 _ZTS27BoolBitfieldDataInformation@Base 4:15.04.0
 _ZTS27DataInformationWithChildren@Base 4:15.04.0
 _ZTS29BasicPrimitiveDataInformationIa26SIntDataInformationMethodsIaEE@Base 4:15.04.0
 _ZTS29BasicPrimitiveDataInformationId28DoubleDataInformationMethodsE@Base 4:15.04.0
 _ZTS29BasicPrimitiveDataInformationIf27FloatDataInformationMethodsE@Base 4:15.04.0
 _ZTS29BasicPrimitiveDataInformationIh26BoolDataInformationMethodsIhEE@Base 4:15.04.0
 _ZTS29BasicPrimitiveDataInformationIh26CharDataInformationMethodsE@Base 4:15.04.0
 _ZTS29BasicPrimitiveDataInformationIh26UIntDataInformationMethodsIhEE@Base 4:15.04.0
 _ZTS29BasicPrimitiveDataInformationIi26SIntDataInformationMethodsIiEE@Base 4:15.04.0
 _ZTS29BasicPrimitiveDataInformationIj26BoolDataInformationMethodsIjEE@Base 4:15.04.0
 _ZTS29BasicPrimitiveDataInformationIj26UIntDataInformationMethodsIjEE@Base 4:15.04.0
 _ZTS29BasicPrimitiveDataInformationIs26SIntDataInformationMethodsIsEE@Base 4:15.04.0
 _ZTS29BasicPrimitiveDataInformationIt26BoolDataInformationMethodsItEE@Base 4:15.04.0
 _ZTS29BasicPrimitiveDataInformationIt26UIntDataInformationMethodsItEE@Base 4:15.04.0
 _ZTS29BasicPrimitiveDataInformationIx26SIntDataInformationMethodsIxEE@Base 4:15.04.0
 _ZTS29BasicPrimitiveDataInformationIy26BoolDataInformationMethodsIyEE@Base 4:15.04.0
 _ZTS29BasicPrimitiveDataInformationIy26UIntDataInformationMethodsIyEE@Base 4:15.04.0
 _ZTS29SignedBitfieldDataInformation@Base 4:15.04.0
 _ZTS30SingleElementOsdChildrenParser@Base 4:15.04.0
 _ZTS31AbstractBitfieldDataInformation@Base 4:15.04.0
 _ZTS31PrimitiveDataInformationWrapper@Base 4:15.04.0
 _ZTS31UnsignedBitfieldDataInformation@Base 4:15.04.0
 (arch=armel armhf)_ZTS32DataInformationWithDummyChildren@Base 4:15.08.0
 _ZTS9OsdParser@Base 4:15.04.0
 _ZTSN20ScriptValueConverter25ScriptValueChildrenParserE@Base 4:15.04.0
 _ZTSN6Kasten10FilterToolE@Base 4:15.04.0
 _ZTSN6Kasten10StructToolE@Base 4:15.04.0
 _ZTSN6Kasten12ChecksumToolE@Base 4:15.04.0
 _ZTSN6Kasten12InfoToolViewE@Base 4:15.04.0
 _ZTSN6Kasten13BookmarksToolE@Base 4:15.04.0
 _ZTSN6Kasten13ByteTableToolE@Base 4:15.04.0
 _ZTSN6Kasten14FilterToolViewE@Base 4:15.04.0
 _ZTSN6Kasten14PODDecoderToolE@Base 4:15.04.0
 _ZTSN6Kasten14StructToolViewE@Base 4:15.04.0
 _ZTSN6Kasten15InfoToolFactoryE@Base 4:15.04.0
 _ZTSN6Kasten15PrintControllerE@Base 4:15.04.0
 _ZTSN6Kasten16ChecksumToolViewE@Base 4:15.04.0
 _ZTSN6Kasten16DocumentInfoToolE@Base 4:15.04.0
 _ZTSN6Kasten16SearchControllerE@Base 4:15.04.0
 _ZTSN6Kasten17BookmarksToolViewE@Base 4:15.04.0
 _ZTSN6Kasten17ByteTableToolViewE@Base 4:15.04.0
 _ZTSN6Kasten17FilterToolFactoryE@Base 4:15.04.0
 _ZTSN6Kasten17ReplaceControllerE@Base 4:15.04.0
 _ZTSN6Kasten18PODDecoderToolViewE@Base 4:15.04.0
 _ZTSN6Kasten18StringsExtractToolE@Base 4:15.04.0
 _ZTSN6Kasten18ViewModeControllerE@Base 4:15.04.0
 _ZTSN6Kasten19BookmarksControllerE@Base 4:15.04.0
 _ZTSN6Kasten19ChecksumToolFactoryE@Base 4:15.04.0
 _ZTSN6Kasten19InfoToolViewFactoryE@Base 4:15.04.0
 _ZTSN6Kasten20BookmarksToolFactoryE@Base 4:15.04.0
 _ZTSN6Kasten20ByteTableToolFactoryE@Base 4:15.04.0
 _ZTSN6Kasten20DocumentInfoToolViewE@Base 4:15.04.0
 _ZTSN6Kasten20GotoOffsetControllerE@Base 4:15.04.0
 _ZTSN6Kasten20ViewConfigControllerE@Base 4:15.04.0
 _ZTSN6Kasten20ViewStatusControllerE@Base 4:15.04.0
 _ZTSN6Kasten21CharsetConversionToolE@Base 4:15.04.0
 _ZTSN6Kasten21FilterToolViewFactoryE@Base 4:15.04.0
 _ZTSN6Kasten21PodDecoderToolFactoryE@Base 4:15.04.0
 _ZTSN6Kasten21SelectRangeControllerE@Base 4:15.04.0
 _ZTSN6Kasten21StructViewPreferencesE@Base 4:15.04.0
 _ZTSN6Kasten21StructuresToolFactoryE@Base 4:15.04.0
 _ZTSN6Kasten21ViewProfileControllerE@Base 4:15.04.0
 _ZTSN6Kasten22StringsExtractToolViewE@Base 4:15.04.0
 _ZTSN6Kasten23ChecksumToolViewFactoryE@Base 4:15.04.0
 _ZTSN6Kasten23OverwriteModeControllerE@Base 4:15.04.0
 _ZTSN6Kasten24BookmarksToolViewFactoryE@Base 4:15.04.0
 _ZTSN6Kasten24ByteTableToolViewFactoryE@Base 4:15.04.0
 _ZTSN6Kasten25CharsetConversionToolViewE@Base 4:15.04.0
 _ZTSN6Kasten25PodDecoderToolViewFactoryE@Base 4:15.04.0
 _ZTSN6Kasten25StringsExtractToolFactoryE@Base 4:15.04.0
 _ZTSN6Kasten25StructuresToolViewFactoryE@Base 4:15.04.0
 _ZTSN6Kasten28CharsetConversionToolFactoryE@Base 4:15.04.0
 _ZTSN6Kasten28ViewProfilesManageControllerE@Base 4:15.04.0
 _ZTSN6Kasten29StringsExtractToolViewFactoryE@Base 4:15.04.0
 _ZTSN6Kasten32CharsetConversionToolViewFactoryE@Base 4:15.04.0
 _ZTSN6Kasten8InfoToolE@Base 4:15.04.0
 _ZTV10StringData@Base 4:14.12.0
 _ZTV10Utf8Editor@Base 4:14.12.0
 _ZTV11Char8Editor@Base 4:14.12.0
 _ZTV11SIntSpinBox@Base 4:14.12.0
 _ZTV11UIntSpinBox@Base 4:14.12.0
 _ZTV12Octal8Editor@Base 4:14.12.0
 _ZTV12ScriptLogger@Base 4:14.12.0
 _ZTV13Binary8Editor@Base 4:14.12.0
 _ZTV13Float32Editor@Base 4:14.12.0
 _ZTV13Float64Editor@Base 4:14.12.0
 _ZTV13ScriptHandler@Base 4:14.12.0
 _ZTV14Char8Validator@Base 4:14.12.0
 _ZTV14Utf8StringData@Base 4:14.12.0
 _ZTV15AsciiStringData@Base 4:14.12.0
 _ZTV15DataInformation@Base 4:14.12.0
 _ZTV15EnumScriptClass@Base 4:14.12.0
 _ZTV15Utf16StringData@Base 4:14.12.0
 _ZTV15Utf32StringData@Base 4:14.12.0
 _ZTV16ArrayScriptClass@Base 4:14.12.0
 _ZTV16ComplexArrayData@Base 4:14.12.0
 _ZTV16Latin1StringData@Base 4:14.12.0
 _ZTV16ScriptFileParser@Base 4:14.12.0
 _ZTV16ScriptLoggerView@Base 4:14.12.0
 _ZTV17AbstractArrayData@Base 4:14.12.0
 _ZTV17OsdChildrenParser@Base 4:14.12.0
 _ZTV17StringScriptClass@Base 4:14.12.0
 _ZTV17Utf8CharValidator@Base 4:14.12.0
 _ZTV18DefaultScriptClass@Base 4:14.12.0
 _ZTV18Hexadecimal8Editor@Base 4:14.12.0
 _ZTV18PointerScriptClass@Base 4:14.12.0
 _ZTV18PrimitiveArrayDataIL21PrimitiveDataTypeEnum0EE@Base 4:14.12.0
 _ZTV18PrimitiveArrayDataIL21PrimitiveDataTypeEnum10EE@Base 4:14.12.0
 _ZTV18PrimitiveArrayDataIL21PrimitiveDataTypeEnum11EE@Base 4:14.12.0
 _ZTV18PrimitiveArrayDataIL21PrimitiveDataTypeEnum12EE@Base 4:14.12.0
 _ZTV18PrimitiveArrayDataIL21PrimitiveDataTypeEnum13EE@Base 4:14.12.0
 _ZTV18PrimitiveArrayDataIL21PrimitiveDataTypeEnum14EE@Base 4:14.12.0
 _ZTV18PrimitiveArrayDataIL21PrimitiveDataTypeEnum1EE@Base 4:14.12.0
 _ZTV18PrimitiveArrayDataIL21PrimitiveDataTypeEnum2EE@Base 4:14.12.0
 _ZTV18PrimitiveArrayDataIL21PrimitiveDataTypeEnum3EE@Base 4:14.12.0
 _ZTV18PrimitiveArrayDataIL21PrimitiveDataTypeEnum4EE@Base 4:14.12.0
 _ZTV18PrimitiveArrayDataIL21PrimitiveDataTypeEnum5EE@Base 4:14.12.0
 _ZTV18PrimitiveArrayDataIL21PrimitiveDataTypeEnum6EE@Base 4:14.12.0
 _ZTV18PrimitiveArrayDataIL21PrimitiveDataTypeEnum7EE@Base 4:14.12.0
 _ZTV18PrimitiveArrayDataIL21PrimitiveDataTypeEnum8EE@Base 4:14.12.0
 _ZTV18PrimitiveArrayDataIL21PrimitiveDataTypeEnum9EE@Base 4:14.12.0
 _ZTV19BitfieldScriptClass@Base 4:14.12.0
 _ZTV19DataInformationBase@Base 4:14.12.0
 _ZTV19EnumDataInformation@Base 4:14.12.0
 _ZTV19FlagDataInformation@Base 4:14.12.0
 _ZTV20AbstractValue8Editor@Base 4:14.12.0
 _ZTV20ArrayDataInformation@Base 4:14.12.0
 _ZTV20DummyDataInformation@Base 4:14.12.0
 _ZTV20PrimitiveScriptClass@Base 4:14.12.0
 _ZTV20UnionDataInformation@Base 4:14.12.0
 _ZTV21StringDataInformation@Base 4:14.12.0
 _ZTV22PointerDataInformation@Base 4:14.12.0
 _ZTV22StructUnionScriptClass@Base 4:14.12.0
 _ZTV23AbstractStructureParser@Base 4:14.12.0
 _ZTV23TopLevelDataInformation@Base 4:14.12.0
 _ZTV24PrimitiveDataInformation@Base 4:14.12.0
 _ZTV24StructureDataInformation@Base 4:14.12.0
 _ZTV26DefaultscriptClassIterator@Base 4:14.12.0
 _ZTV26TaggedUnionDataInformation@Base 4:14.12.0
 _ZTV27BoolBitfieldDataInformation@Base 4:14.12.0
 _ZTV27DataInformationWithChildren@Base 4:14.12.0
 _ZTV29BasicPrimitiveDataInformationIa26SIntDataInformationMethodsIaEE@Base 4:14.12.0
 _ZTV29BasicPrimitiveDataInformationId28DoubleDataInformationMethodsE@Base 4:14.12.0
 _ZTV29BasicPrimitiveDataInformationIf27FloatDataInformationMethodsE@Base 4:14.12.0
 _ZTV29BasicPrimitiveDataInformationIh26BoolDataInformationMethodsIhEE@Base 4:14.12.0
 _ZTV29BasicPrimitiveDataInformationIh26CharDataInformationMethodsE@Base 4:14.12.0
 _ZTV29BasicPrimitiveDataInformationIh26UIntDataInformationMethodsIhEE@Base 4:14.12.0
 _ZTV29BasicPrimitiveDataInformationIi26SIntDataInformationMethodsIiEE@Base 4:14.12.0
 _ZTV29BasicPrimitiveDataInformationIj26BoolDataInformationMethodsIjEE@Base 4:14.12.0
 _ZTV29BasicPrimitiveDataInformationIj26UIntDataInformationMethodsIjEE@Base 4:14.12.0
 _ZTV29BasicPrimitiveDataInformationIs26SIntDataInformationMethodsIsEE@Base 4:14.12.0
 _ZTV29BasicPrimitiveDataInformationIt26BoolDataInformationMethodsItEE@Base 4:14.12.0
 _ZTV29BasicPrimitiveDataInformationIt26UIntDataInformationMethodsItEE@Base 4:14.12.0
 _ZTV29BasicPrimitiveDataInformationIx26SIntDataInformationMethodsIxEE@Base 4:14.12.0
 _ZTV29BasicPrimitiveDataInformationIy26BoolDataInformationMethodsIyEE@Base 4:14.12.0
 _ZTV29BasicPrimitiveDataInformationIy26UIntDataInformationMethodsIyEE@Base 4:14.12.0
 _ZTV29SignedBitfieldDataInformation@Base 4:14.12.0
 _ZTV30SingleElementOsdChildrenParser@Base 4:14.12.0
 _ZTV31AbstractBitfieldDataInformation@Base 4:14.12.0
 _ZTV31PrimitiveDataInformationWrapper@Base 4:14.12.0
 _ZTV31UnsignedBitfieldDataInformation@Base 4:14.12.0
 (arch=armel armhf)_ZTV32DataInformationWithDummyChildren@Base 4:15.08.0
 _ZTV9OsdParser@Base 4:14.12.0
 _ZTVN20ScriptValueConverter25ScriptValueChildrenParserE@Base 4:14.12.0
 _ZTVN6Kasten10FilterToolE@Base 4:14.12.0
 _ZTVN6Kasten10StructToolE@Base 4:14.12.0
 _ZTVN6Kasten12ChecksumToolE@Base 4:14.12.0
 _ZTVN6Kasten12InfoToolViewE@Base 4:14.12.0
 _ZTVN6Kasten13BookmarksToolE@Base 4:14.12.0
 _ZTVN6Kasten13ByteTableToolE@Base 4:14.12.0
 _ZTVN6Kasten14FilterToolViewE@Base 4:14.12.0
 _ZTVN6Kasten14PODDecoderToolE@Base 4:14.12.0
 _ZTVN6Kasten14StructToolViewE@Base 4:14.12.0
 _ZTVN6Kasten15InfoToolFactoryE@Base 4:14.12.0
 _ZTVN6Kasten15PrintControllerE@Base 4:14.12.0
 _ZTVN6Kasten16ChecksumToolViewE@Base 4:14.12.0
 _ZTVN6Kasten16DocumentInfoToolE@Base 4:14.12.0
 _ZTVN6Kasten16SearchControllerE@Base 4:14.12.0
 _ZTVN6Kasten17BookmarksToolViewE@Base 4:14.12.0
 _ZTVN6Kasten17ByteTableToolViewE@Base 4:14.12.0
 _ZTVN6Kasten17FilterToolFactoryE@Base 4:14.12.0
 _ZTVN6Kasten17ReplaceControllerE@Base 4:14.12.0
 _ZTVN6Kasten18PODDecoderToolViewE@Base 4:14.12.0
 _ZTVN6Kasten18StringsExtractToolE@Base 4:14.12.0
 _ZTVN6Kasten18ViewModeControllerE@Base 4:14.12.0
 _ZTVN6Kasten19BookmarksControllerE@Base 4:14.12.0
 _ZTVN6Kasten19ChecksumToolFactoryE@Base 4:14.12.0
 _ZTVN6Kasten19InfoToolViewFactoryE@Base 4:14.12.0
 _ZTVN6Kasten20BookmarksToolFactoryE@Base 4:14.12.0
 _ZTVN6Kasten20ByteTableToolFactoryE@Base 4:14.12.0
 _ZTVN6Kasten20DocumentInfoToolViewE@Base 4:14.12.0
 _ZTVN6Kasten20GotoOffsetControllerE@Base 4:14.12.0
 _ZTVN6Kasten20ViewConfigControllerE@Base 4:14.12.0
 _ZTVN6Kasten20ViewStatusControllerE@Base 4:14.12.0
 _ZTVN6Kasten21CharsetConversionToolE@Base 4:14.12.0
 _ZTVN6Kasten21FilterToolViewFactoryE@Base 4:14.12.0
 _ZTVN6Kasten21PodDecoderToolFactoryE@Base 4:14.12.0
 _ZTVN6Kasten21SelectRangeControllerE@Base 4:14.12.0
 _ZTVN6Kasten21StructViewPreferencesE@Base 4:14.12.0
 _ZTVN6Kasten21StructuresToolFactoryE@Base 4:14.12.0
 _ZTVN6Kasten21ViewProfileControllerE@Base 4:14.12.0
 _ZTVN6Kasten22StringsExtractToolViewE@Base 4:14.12.0
 _ZTVN6Kasten23ChecksumToolViewFactoryE@Base 4:14.12.0
 _ZTVN6Kasten23OverwriteModeControllerE@Base 4:14.12.0
 _ZTVN6Kasten24BookmarksToolViewFactoryE@Base 4:14.12.0
 _ZTVN6Kasten24ByteTableToolViewFactoryE@Base 4:14.12.0
 _ZTVN6Kasten25CharsetConversionToolViewE@Base 4:14.12.0
 _ZTVN6Kasten25PodDecoderToolViewFactoryE@Base 4:14.12.0
 _ZTVN6Kasten25StringsExtractToolFactoryE@Base 4:14.12.0
 _ZTVN6Kasten25StructuresToolViewFactoryE@Base 4:14.12.0
 _ZTVN6Kasten28CharsetConversionToolFactoryE@Base 4:14.12.0
 _ZTVN6Kasten28ViewProfilesManageControllerE@Base 4:14.12.0
 _ZTVN6Kasten29StringsExtractToolViewFactoryE@Base 4:14.12.0
 _ZTVN6Kasten32CharsetConversionToolViewFactoryE@Base 4:14.12.0
 _ZTVN6Kasten8InfoToolE@Base 4:14.12.0
 (optional=templinst)_ZZN11QMetaTypeIdI12QScriptValueE14qt_metatype_idEvE11metatype_id@Base 4:14.12.0
 (optional=templinst)_ZZN11QMetaTypeIdI13SafeReferenceE14qt_metatype_idEvE11metatype_id@Base 4:14.12.0
 _Zls6QDebug17PrimitiveDataType@Base 4:14.12.0
 (optional=templinst)_ZpLI14QStringBuilderIS0_I7QStringS1_ES1_E11QLatin1CharERS1_S5_RKS0_IT_T0_E@Base 4:14.12.0
 (optional=templinst)_ZpLI7QStringS0_ERS0_S1_RK14QStringBuilderIT_T0_E@Base 4:14.12.0
 (c++)"non-virtual thunk to AbstractValue8Editor::~AbstractValue8Editor()@Base" 4:14.12.0
 (c++)"non-virtual thunk to Binary8Editor::~Binary8Editor()@Base" 4:14.12.0
 (c++)"non-virtual thunk to Char8Editor::~Char8Editor()@Base" 4:14.12.0
 (c++)"non-virtual thunk to Float32Editor::~Float32Editor()@Base" 4:14.12.0
 (c++)"non-virtual thunk to Float64Editor::~Float64Editor()@Base" 4:14.12.0
 (c++)"non-virtual thunk to Hexadecimal8Editor::~Hexadecimal8Editor()@Base" 4:14.12.0
 (c++)"non-virtual thunk to Kasten::ReplaceController::queryContinue(Kasten::KFindDirection, int) const@Base" 4:14.12.0
 (c++)"non-virtual thunk to Kasten::ReplaceController::queryReplaceCurrent() const@Base" 4:14.12.0
 (c++)"non-virtual thunk to Kasten::ReplaceController::~ReplaceController()@Base" 4:14.12.0
 (c++)"non-virtual thunk to Kasten::SearchController::queryContinue(Kasten::KFindDirection) const@Base" 4:14.12.0
 (c++)"non-virtual thunk to Kasten::SearchController::~SearchController()@Base" 4:14.12.0
 (c++)"non-virtual thunk to Octal8Editor::~Octal8Editor()@Base" 4:14.12.0
 (c++)"non-virtual thunk to SIntSpinBox::~SIntSpinBox()@Base" 4:14.12.0
 (c++)"non-virtual thunk to ScriptLoggerView::~ScriptLoggerView()@Base" 4:14.12.0
 (c++)"non-virtual thunk to TopLevelDataInformation::isTopLevel() const@Base" 4:14.12.0
 (c++)"non-virtual thunk to TopLevelDataInformation::~TopLevelDataInformation()@Base" 4:14.12.0
 (c++)"non-virtual thunk to UIntSpinBox::~UIntSpinBox()@Base" 4:14.12.0
 (c++)"non-virtual thunk to Utf8Editor::~Utf8Editor()@Base" 4:14.12.0
